	.file	"comunes.c"
	.text
.Ltext0:
	.cfi_sections	.debug_frame
	.section .rdata,"dr"
	.align 8
.LC0:
	.ascii "\33[1m\33[1;31mError: delimitador incorrecto, vuelva a intenta\12\33[0m\0"
	.align 8
.LC1:
	.ascii "\33[1m\33[1;31mError: mes incorrecto, vuelva a intentar\12\33[0m\0"
	.align 8
.LC2:
	.ascii "\33[1m\33[1;31mError: fecha fuera de rango [2016-12 ; 2025-07], vuelva a intentar\12\33[0m\0"
	.text
	.globl	validarFechaForm
	.def	validarFechaForm;	.scl	2;	.type	32;	.endef
	.seh_proc	validarFechaForm
validarFechaForm:
.LFB17:
	.file 1 "C:/Users/LENOVO/OneDrive/Escritorio/TP_T\363picos_2025_2c_jueves_LOS_FUNDAMENTALISTAS_DE_LINUX/comunes.c"
	.loc 1 10 1
	.cfi_startproc
	pushq	%rbp
	.seh_pushreg	%rbp
	.cfi_def_cfa_offset 16
	.cfi_offset 6, -16
	movq	%rsp, %rbp
	.seh_setframe	%rbp, 0
	.cfi_def_cfa_register 6
	subq	$48, %rsp
	.seh_stackalloc	48
	.seh_endprologue
	movq	%rcx, 16(%rbp)
	.loc 1 13 11
	movq	16(%rbp), %rax
	addq	$4, %rax
	movzbl	(%rax), %eax
	.loc 1 13 7
	cmpb	$45, %al
	je	.L2
	.loc 1 14 9
	leaq	.LC0(%rip), %rcx
	call	printf
	.loc 1 15 16
	movl	$0, %eax
	jmp	.L3
.L2:
	.loc 1 18 14
	movq	16(%rbp), %rax
	addq	$5, %rax
	movzbl	(%rax), %eax
	movsbl	%al, %edx
	.loc 1 18 18
	movl	%edx, %eax
	sall	$2, %eax
	addl	%edx, %eax
	addl	%eax, %eax
	movl	%eax, %edx
	.loc 1 18 28
	movq	16(%rbp), %rax
	addq	$6, %rax
	movzbl	(%rax), %eax
	movsbl	%al, %eax
	.loc 1 18 23
	addl	%edx, %eax
	.loc 1 18 9
	subl	$528, %eax
	movl	%eax, -4(%rbp)
	.loc 1 20 7
	cmpl	$0, -4(%rbp)
	js	.L4
	.loc 1 20 16 discriminator 1
	cmpl	$12, -4(%rbp)
	jle	.L5
.L4:
	.loc 1 21 9
	leaq	.LC1(%rip), %rcx
	call	printf
	.loc 1 22 16
	movl	$0, %eax
	jmp	.L3
.L5:
	.loc 1 25 15
	movq	16(%rbp), %rax
	movzbl	(%rax), %eax
	movsbl	%al, %eax
	.loc 1 25 19
	imull	$100000, %eax, %edx
	.loc 1 25 33
	movq	16(%rbp), %rax
	addq	$1, %rax
	movzbl	(%rax), %eax
	movsbl	%al, %eax
	.loc 1 25 37
	imull	$10000, %eax, %eax
	.loc 1 25 28
	addl	%eax, %edx
	.loc 1 25 50
	movq	16(%rbp), %rax
	addq	$2, %rax
	movzbl	(%rax), %eax
	movsbl	%al, %eax
	.loc 1 25 54
	imull	$1000, %eax, %eax
	.loc 1 25 45
	addl	%eax, %edx
	.loc 1 25 66
	movq	16(%rbp), %rax
	addq	$3, %rax
	movzbl	(%rax), %eax
	movsbl	%al, %eax
	.loc 1 25 70
	imull	$100, %eax, %eax
	.loc 1 25 61
	addl	%edx, %eax
	.loc 1 25 76
	subl	$5332800, %eax
	.loc 1 25 9
	addl	%eax, -4(%rbp)
	.loc 1 27 7
	cmpl	$201611, -4(%rbp)
	jle	.L6
	.loc 1 27 21 discriminator 1
	cmpl	$202507, -4(%rbp)
	jle	.L7
.L6:
	.loc 1 28 9
	leaq	.LC2(%rip), %rcx
	call	printf
	.loc 1 29 16
	movl	$0, %eax
	jmp	.L3
.L7:
	.loc 1 32 12
	movl	$1, %eax
.L3:
	.loc 1 33 1
	addq	$48, %rsp
	popq	%rbp
	.cfi_restore 6
	.cfi_def_cfa 7, 8
	ret
	.cfi_endproc
.LFE17:
	.seh_endproc
	.section .rdata,"dr"
.LC3:
	.ascii "\33[1m\33[1;32m%s\12\0"
.LC4:
	.ascii "\33[0;37m%-*s\11 | \0"
.LC5:
	.ascii "%-*s\11 |\0"
.LC6:
	.ascii "\0"
.LC7:
	.ascii "\33[0m\0"
	.text
	.globl	imprimirHeaderTabla
	.def	imprimirHeaderTabla;	.scl	2;	.type	32;	.endef
	.seh_proc	imprimirHeaderTabla
imprimirHeaderTabla:
.LFB18:
	.loc 1 36 1
	.cfi_startproc
	pushq	%rbp
	.seh_pushreg	%rbp
	.cfi_def_cfa_offset 16
	.cfi_offset 6, -16
	movq	%rsp, %rbp
	.seh_setframe	%rbp, 0
	.cfi_def_cfa_register 6
	subq	$48, %rsp
	.seh_stackalloc	48
	.seh_endprologue
	movq	%rcx, 16(%rbp)
	movq	%rdx, 24(%rbp)
	movq	%r8, 32(%rbp)
	movl	%r9d, 40(%rbp)
	.loc 1 37 12
	movq	32(%rbp), %rax
	movl	(%rax), %eax
	movl	%eax, -8(%rbp)
	.loc 1 38 5
	movq	16(%rbp), %rdx
	leaq	.LC3(%rip), %rcx
	call	printf
	.loc 1 39 5
	movq	24(%rbp), %rax
	movq	(%rax), %rdx
	movq	32(%rbp), %rax
	movl	(%rax), %eax
	movq	%rdx, %r8
	movl	%eax, %edx
	leaq	.LC4(%rip), %rcx
	call	printf
	.loc 1 42 11
	movl	$1, -4(%rbp)
	.loc 1 42 5
	jmp	.L9
.L10:
	.loc 1 43 47 discriminator 3
	movl	-4(%rbp), %eax
	cltq
	leaq	0(,%rax,8), %rdx
	movq	24(%rbp), %rax
	addq	%rdx, %rax
	.loc 1 43 9 discriminator 3
	movq	(%rax), %rdx
	.loc 1 43 36 discriminator 3
	movl	-4(%rbp), %eax
	cltq
	leaq	0(,%rax,4), %rcx
	movq	32(%rbp), %rax
	addq	%rcx, %rax
	.loc 1 43 9 discriminator 3
	movl	(%rax), %eax
	movq	%rdx, %r8
	movl	%eax, %edx
	leaq	.LC5(%rip), %rcx
	call	printf
	.loc 1 44 24 discriminator 3
	movl	-4(%rbp), %eax
	cltq
	leaq	0(,%rax,4), %rdx
	movq	32(%rbp), %rax
	addq	%rdx, %rax
	movl	(%rax), %eax
	.loc 1 44 13 discriminator 3
	addl	%eax, -8(%rbp)
	.loc 1 42 25 discriminator 3
	addl	$1, -4(%rbp)
.L9:
	.loc 1 42 5 discriminator 1
	movl	-4(%rbp), %eax
	cmpl	40(%rbp), %eax
	jl	.L10
	.loc 1 47 5
	leaq	.LC6(%rip), %rcx
	call	puts
	.loc 1 48 14
	movl	40(%rbp), %eax
	sall	$2, %eax
	.loc 1 48 9
	addl	%eax, -8(%rbp)
	.loc 1 49 5
	jmp	.L11
.L12:
	.loc 1 50 9 discriminator 2
	movl	$45, %ecx
	call	putchar
	.loc 1 49 23 discriminator 2
	subl	$1, -8(%rbp)
.L11:
	.loc 1 49 5 discriminator 1
	cmpl	$0, -8(%rbp)
	jg	.L12
	.loc 1 53 5
	leaq	.LC7(%rip), %rcx
	call	puts
	.loc 1 54 1
	nop
	addq	$48, %rsp
	popq	%rbp
	.cfi_restore 6
	.cfi_def_cfa 7, 8
	ret
	.cfi_endproc
.LFE18:
	.seh_endproc
	.section .rdata,"dr"
.LC8:
	.ascii "%s|%s|%s|%s|%s|%s|%s|%s\12\0"
	.text
	.globl	parsearEscrDivisiones
	.def	parsearEscrDivisiones;	.scl	2;	.type	32;	.endef
	.seh_proc	parsearEscrDivisiones
parsearEscrDivisiones:
.LFB19:
	.loc 1 57 1
	.cfi_startproc
	pushq	%rbp
	.seh_pushreg	%rbp
	.cfi_def_cfa_offset 16
	.cfi_offset 6, -16
	pushq	%rbx
	.seh_pushreg	%rbx
	.cfi_def_cfa_offset 24
	.cfi_offset 3, -24
	subq	$104, %rsp
	.seh_stackalloc	104
	.cfi_def_cfa_offset 128
	leaq	128(%rsp), %rbp
	.seh_setframe	%rbp, 128
	.cfi_def_cfa 6, 0
	.seh_endprologue
	movq	%rcx, 0(%rbp)
	movq	%rdx, 8(%rbp)
	.loc 1 58 20
	movq	8(%rbp), %rax
	movq	%rax, -40(%rbp)
	.loc 1 60 149
	movq	-40(%rbp), %rax
	leaq	185(%rax), %r10
	.loc 1 60 136
	movq	-40(%rbp), %rax
	leaq	170(%rax), %r9
	.loc 1 60 118
	movq	-40(%rbp), %rax
	leaq	152(%rax), %r8
	.loc 1 60 101
	movq	-40(%rbp), %rax
	leaq	134(%rax), %rcx
	.loc 1 60 85
	movq	-40(%rbp), %rax
	leaq	116(%rax), %rdx
	.loc 1 60 72
	movq	-40(%rbp), %rax
	addq	$76, %rax
	.loc 1 60 61
	movq	-40(%rbp), %r11
	leaq	15(%r11), %rbx
	.loc 1 60 51
	movq	-40(%rbp), %r11
	.loc 1 60 5
	movq	%r10, 72(%rsp)
	movq	%r9, 64(%rsp)
	movq	%r8, 56(%rsp)
	movq	%rcx, 48(%rsp)
	movq	%rdx, 40(%rsp)
	movq	%rax, 32(%rsp)
	movq	%rbx, %r9
	movq	%r11, %r8
	leaq	.LC8(%rip), %rdx
	movq	0(%rbp), %rcx
	call	fprintf
	.loc 1 61 12
	movl	$0, %eax
	.loc 1 62 1
	addq	$104, %rsp
	popq	%rbx
	.cfi_restore 3
	popq	%rbp
	.cfi_restore 6
	.cfi_def_cfa 7, -88
	ret
	.cfi_endproc
.LFE19:
	.seh_endproc
	.section .rdata,"dr"
	.align 8
.LC9:
	.ascii "\33[1m\33[1;36m%s\33[0;37m|\33[1;33m%s\33[0;37m|\33[1;32m%s\33[0;37m|\33[1;31m%s\33[0;37m|\33[1;36m%s\33[0;37m|\33[1;33m%s\33[0;37m|\33[1;32m%s\33[0;37m|\33[1;31m%s\33[0m\12\0"
	.text
	.globl	mostrarDivisiones
	.def	mostrarDivisiones;	.scl	2;	.type	32;	.endef
	.seh_proc	mostrarDivisiones
mostrarDivisiones:
.LFB20:
	.loc 1 65 1
	.cfi_startproc
	pushq	%rbp
	.seh_pushreg	%rbp
	.cfi_def_cfa_offset 16
	.cfi_offset 6, -16
	pushq	%r15
	.seh_pushreg	%r15
	.cfi_def_cfa_offset 24
	.cfi_offset 15, -24
	pushq	%r14
	.seh_pushreg	%r14
	.cfi_def_cfa_offset 32
	.cfi_offset 14, -32
	pushq	%r13
	.seh_pushreg	%r13
	.cfi_def_cfa_offset 40
	.cfi_offset 13, -40
	pushq	%r12
	.seh_pushreg	%r12
	.cfi_def_cfa_offset 48
	.cfi_offset 12, -48
	pushq	%rdi
	.seh_pushreg	%rdi
	.cfi_def_cfa_offset 56
	.cfi_offset 5, -56
	pushq	%rsi
	.seh_pushreg	%rsi
	.cfi_def_cfa_offset 64
	.cfi_offset 4, -64
	pushq	%rbx
	.seh_pushreg	%rbx
	.cfi_def_cfa_offset 72
	.cfi_offset 3, -72
	subq	$120, %rsp
	.seh_stackalloc	120
	.cfi_def_cfa_offset 192
	leaq	128(%rsp), %rbp
	.seh_setframe	%rbp, 128
	.cfi_def_cfa 6, 64
	.seh_endprologue
	movq	%rcx, 64(%rbp)
	.loc 1 66 20
	movq	64(%rbp), %rax
	movq	%rax, -24(%rbp)
	.loc 1 69 14
	movl	waitJ.4669(%rip), %eax
	.loc 1 69 7
	cmpl	$126, %eax
	jne	.L16
	.loc 1 70 9
	call	getchar
	.loc 1 71 15
	movl	$0, waitJ.4669(%rip)
.L16:
	.loc 1 78 135
	movq	-24(%rbp), %rax
	leaq	185(%rax), %r14
	.loc 1 78 122
	movq	-24(%rbp), %rax
	leaq	170(%rax), %r13
	.loc 1 78 104
	movq	-24(%rbp), %rax
	leaq	152(%rax), %r12
	.loc 1 78 87
	movq	-24(%rbp), %rax
	leaq	134(%rax), %rdi
	.loc 1 78 71
	movq	-24(%rbp), %rax
	leaq	116(%rax), %rsi
	.loc 1 78 58
	movq	-24(%rbp), %rax
	leaq	76(%rax), %rbx
	.loc 1 78 47
	movq	-24(%rbp), %rax
	addq	$15, %rax
	movq	%rax, -40(%rbp)
	.loc 1 78 37
	movq	-24(%rbp), %r15
	.loc 1 74 5
	movl	$1, %ecx
	movq	__imp___acrt_iob_func(%rip), %rax
	call	*%rax
.LVL0:
	movq	%r14, 72(%rsp)
	movq	%r13, 64(%rsp)
	movq	%r12, 56(%rsp)
	movq	%rdi, 48(%rsp)
	movq	%rsi, 40(%rsp)
	movq	%rbx, 32(%rsp)
	movq	-40(%rbp), %r9
	movq	%r15, %r8
	leaq	.LC9(%rip), %rdx
	movq	%rax, %rcx
	call	fprintf
	.loc 1 79 10
	movl	waitJ.4669(%rip), %eax
	addl	$1, %eax
	movl	%eax, waitJ.4669(%rip)
	.loc 1 80 1
	nop
	addq	$120, %rsp
	popq	%rbx
	.cfi_restore 3
	popq	%rsi
	.cfi_restore 4
	popq	%rdi
	.cfi_restore 5
	popq	%r12
	.cfi_restore 12
	popq	%r13
	.cfi_restore 13
	popq	%r14
	.cfi_restore 14
	popq	%r15
	.cfi_restore 15
	popq	%rbp
	.cfi_restore 6
	.cfi_def_cfa 7, -56
	ret
	.cfi_endproc
.LFE20:
	.seh_endproc
	.section .rdata,"dr"
.LC10:
	.ascii "%s | %s | %s | %s\12\0"
	.text
	.globl	parsearEscrPromedio
	.def	parsearEscrPromedio;	.scl	2;	.type	32;	.endef
	.seh_proc	parsearEscrPromedio
parsearEscrPromedio:
.LFB21:
	.loc 1 83 1
	.cfi_startproc
	pushq	%rbp
	.seh_pushreg	%rbp
	.cfi_def_cfa_offset 16
	.cfi_offset 6, -16
	movq	%rsp, %rbp
	.seh_setframe	%rbp, 0
	.cfi_def_cfa_register 6
	subq	$64, %rsp
	.seh_stackalloc	64
	.seh_endprologue
	movq	%rcx, 16(%rbp)
	movq	%rdx, 24(%rbp)
	.loc 1 84 18
	movq	24(%rbp), %rax
	movq	%rax, -8(%rbp)
	.loc 1 86 81
	movq	-8(%rbp), %rax
	leaq	63(%rax), %rdx
	.loc 1 86 64
	movq	-8(%rbp), %rax
	addq	$45, %rax
	.loc 1 86 53
	movq	-8(%rbp), %rcx
	leaq	30(%rcx), %r8
	.loc 1 86 43
	movq	-8(%rbp), %rcx
	.loc 1 86 5
	movq	%rdx, 40(%rsp)
	movq	%rax, 32(%rsp)
	movq	%r8, %r9
	movq	%rcx, %r8
	leaq	.LC10(%rip), %rdx
	movq	16(%rbp), %rcx
	call	fprintf
	.loc 1 88 12
	movl	$0, %eax
	.loc 1 89 1
	addq	$64, %rsp
	popq	%rbp
	.cfi_restore 6
	.cfi_def_cfa 7, 8
	ret
	.cfi_endproc
.LFE21:
	.seh_endproc
	.globl	parsearEscrAperturas
	.def	parsearEscrAperturas;	.scl	2;	.type	32;	.endef
	.seh_proc	parsearEscrAperturas
parsearEscrAperturas:
.LFB22:
	.loc 1 92 1
	.cfi_startproc
	pushq	%rbp
	.seh_pushreg	%rbp
	.cfi_def_cfa_offset 16
	.cfi_offset 6, -16
	pushq	%rbx
	.seh_pushreg	%rbx
	.cfi_def_cfa_offset 24
	.cfi_offset 3, -24
	subq	$104, %rsp
	.seh_stackalloc	104
	.cfi_def_cfa_offset 128
	leaq	128(%rsp), %rbp
	.seh_setframe	%rbp, 128
	.cfi_def_cfa 6, 0
	.seh_endprologue
	movq	%rcx, 0(%rbp)
	movq	%rdx, 8(%rbp)
	.loc 1 93 19
	movq	8(%rbp), %rax
	movq	%rax, -40(%rbp)
	.loc 1 95 150
	movq	-40(%rbp), %rax
	leaq	200(%rax), %r10
	.loc 1 95 132
	movq	-40(%rbp), %rax
	leaq	182(%rax), %r9
	.loc 1 95 115
	movq	-40(%rbp), %rax
	leaq	164(%rax), %r8
	.loc 1 95 99
	movq	-40(%rbp), %rax
	leaq	146(%rax), %rcx
	.loc 1 95 85
	movq	-40(%rbp), %rax
	leaq	116(%rax), %rdx
	.loc 1 95 72
	movq	-40(%rbp), %rax
	addq	$76, %rax
	.loc 1 95 61
	movq	-40(%rbp), %r11
	leaq	15(%r11), %rbx
	.loc 1 95 51
	movq	-40(%rbp), %r11
	.loc 1 95 5
	movq	%r10, 72(%rsp)
	movq	%r9, 64(%rsp)
	movq	%r8, 56(%rsp)
	movq	%rcx, 48(%rsp)
	movq	%rdx, 40(%rsp)
	movq	%rax, 32(%rsp)
	movq	%rbx, %r9
	movq	%r11, %r8
	leaq	.LC8(%rip), %rdx
	movq	0(%rbp), %rcx
	call	fprintf
	.loc 1 96 12
	movl	$0, %eax
	.loc 1 97 1
	addq	$104, %rsp
	popq	%rbx
	.cfi_restore 3
	popq	%rbp
	.cfi_restore 6
	.cfi_def_cfa 7, -88
	ret
	.cfi_endproc
.LFE22:
	.seh_endproc
	.globl	mostrarAperturas
	.def	mostrarAperturas;	.scl	2;	.type	32;	.endef
	.seh_proc	mostrarAperturas
mostrarAperturas:
.LFB23:
	.loc 1 100 1
	.cfi_startproc
	pushq	%rbp
	.seh_pushreg	%rbp
	.cfi_def_cfa_offset 16
	.cfi_offset 6, -16
	pushq	%r15
	.seh_pushreg	%r15
	.cfi_def_cfa_offset 24
	.cfi_offset 15, -24
	pushq	%r14
	.seh_pushreg	%r14
	.cfi_def_cfa_offset 32
	.cfi_offset 14, -32
	pushq	%r13
	.seh_pushreg	%r13
	.cfi_def_cfa_offset 40
	.cfi_offset 13, -40
	pushq	%r12
	.seh_pushreg	%r12
	.cfi_def_cfa_offset 48
	.cfi_offset 12, -48
	pushq	%rdi
	.seh_pushreg	%rdi
	.cfi_def_cfa_offset 56
	.cfi_offset 5, -56
	pushq	%rsi
	.seh_pushreg	%rsi
	.cfi_def_cfa_offset 64
	.cfi_offset 4, -64
	pushq	%rbx
	.seh_pushreg	%rbx
	.cfi_def_cfa_offset 72
	.cfi_offset 3, -72
	subq	$120, %rsp
	.seh_stackalloc	120
	.cfi_def_cfa_offset 192
	leaq	128(%rsp), %rbp
	.seh_setframe	%rbp, 128
	.cfi_def_cfa 6, 64
	.seh_endprologue
	movq	%rcx, 64(%rbp)
	.loc 1 101 19
	movq	64(%rbp), %rax
	movq	%rax, -24(%rbp)
	.loc 1 104 10
	movl	i.4684(%rip), %eax
	.loc 1 104 7
	cmpl	$261, %eax
	jne	.L22
	.loc 1 105 9
	call	getchar
	.loc 1 106 11
	movl	$0, i.4684(%rip)
.L22:
	.loc 1 113 136
	movq	-24(%rbp), %rax
	leaq	200(%rax), %r14
	.loc 1 113 118
	movq	-24(%rbp), %rax
	leaq	182(%rax), %r13
	.loc 1 113 101
	movq	-24(%rbp), %rax
	leaq	164(%rax), %r12
	.loc 1 113 85
	movq	-24(%rbp), %rax
	leaq	146(%rax), %rdi
	.loc 1 113 71
	movq	-24(%rbp), %rax
	leaq	116(%rax), %rsi
	.loc 1 113 58
	movq	-24(%rbp), %rax
	leaq	76(%rax), %rbx
	.loc 1 113 47
	movq	-24(%rbp), %rax
	addq	$15, %rax
	movq	%rax, -40(%rbp)
	.loc 1 113 37
	movq	-24(%rbp), %r15
	.loc 1 109 5
	movl	$1, %ecx
	movq	__imp___acrt_iob_func(%rip), %rax
	call	*%rax
.LVL1:
	movq	%r14, 72(%rsp)
	movq	%r13, 64(%rsp)
	movq	%r12, 56(%rsp)
	movq	%rdi, 48(%rsp)
	movq	%rsi, 40(%rsp)
	movq	%rbx, 32(%rsp)
	movq	-40(%rbp), %r9
	movq	%r15, %r8
	leaq	.LC9(%rip), %rdx
	movq	%rax, %rcx
	call	fprintf
	.loc 1 115 6
	movl	i.4684(%rip), %eax
	addl	$1, %eax
	movl	%eax, i.4684(%rip)
	.loc 1 116 1
	nop
	addq	$120, %rsp
	popq	%rbx
	.cfi_restore 3
	popq	%rsi
	.cfi_restore 4
	popq	%rdi
	.cfi_restore 5
	popq	%r12
	.cfi_restore 12
	popq	%r13
	.cfi_restore 13
	popq	%r14
	.cfi_restore 14
	popq	%r15
	.cfi_restore 15
	popq	%rbp
	.cfi_restore 6
	.cfi_def_cfa 7, -56
	ret
	.cfi_endproc
.LFE23:
	.seh_endproc
	.globl	parsearEscrAlquileres
	.def	parsearEscrAlquileres;	.scl	2;	.type	32;	.endef
	.seh_proc	parsearEscrAlquileres
parsearEscrAlquileres:
.LFB24:
	.loc 1 119 1
	.cfi_startproc
	pushq	%rbp
	.seh_pushreg	%rbp
	.cfi_def_cfa_offset 16
	.cfi_offset 6, -16
	movq	%rsp, %rbp
	.seh_setframe	%rbp, 0
	.cfi_def_cfa_register 6
	subq	$64, %rsp
	.seh_stackalloc	64
	.seh_endprologue
	movq	%rcx, 16(%rbp)
	movq	%rdx, 24(%rbp)
	.loc 1 120 20
	movq	24(%rbp), %rax
	movq	%rax, -8(%rbp)
	.loc 1 122 94
	movq	-8(%rbp), %rax
	leaq	66(%rax), %rdx
	.loc 1 122 75
	movq	-8(%rbp), %rax
	addq	$48, %rax
	.loc 1 122 59
	movq	-8(%rbp), %rcx
	leaq	30(%rcx), %r8
	.loc 1 122 45
	movq	-8(%rbp), %rcx
	.loc 1 122 5
	movq	%rdx, 40(%rsp)
	movq	%rax, 32(%rsp)
	movq	%r8, %r9
	movq	%rcx, %r8
	leaq	.LC10(%rip), %rdx
	movq	16(%rbp), %rcx
	call	fprintf
	.loc 1 124 12
	movl	$0, %eax
	.loc 1 125 1
	addq	$64, %rsp
	popq	%rbp
	.cfi_restore 6
	.cfi_def_cfa 7, 8
	ret
	.cfi_endproc
.LFE24:
	.seh_endproc
.lcomm waitJ.4669,4,4
.lcomm i.4684,4,4
.Letext0:
	.file 2 "C:/Program Files/CodeBlocks/MinGW/x86_64-w64-mingw32/include/crtdefs.h"
	.file 3 "C:/Program Files/CodeBlocks/MinGW/x86_64-w64-mingw32/include/stdio.h"
	.file 4 "C:/Program Files/CodeBlocks/MinGW/x86_64-w64-mingw32/include/stdlib.h"
	.file 5 "C:/Program Files/CodeBlocks/MinGW/x86_64-w64-mingw32/include/malloc.h"
	.file 6 "C:/Program Files/CodeBlocks/MinGW/x86_64-w64-mingw32/include/ctype.h"
	.file 7 "C:/Users/LENOVO/OneDrive/Escritorio/TP_T\363picos_2025_2c_jueves_LOS_FUNDAMENTALISTAS_DE_LINUX/comunes.h"