	.file	"formulario.c"
	.text
.Ltext0:
	.cfi_sections	.debug_frame
	.section .rdata,"dr"
	.align 8
.LC0:
	.ascii "\33[1m\33[1;31mRespuesta fuera del rango valido [%lf : %lf]\33[0m\12\0"
	.align 8
.LC1:
	.ascii "\33[1m\33[1;31mRespuesta demasiado larga, maxlen: %d\33[0m\12\0"
	.align 8
.LC2:
	.ascii "\33[1m\33[1;31mOpcion incorrecta, elija de nuevo\33[0m\0"
	.text
	.globl	campoValidar
	.def	campoValidar;	.scl	2;	.type	32;	.endef
	.seh_proc	campoValidar
campoValidar:
.LFB17:
	.file 1 "C:/Users/LENOVO/OneDrive/Escritorio/TP_T\363picos_2025_2c_jueves_LOS_FUNDAMENTALISTAS_DE_LINUX/formulario.c"
	.loc 1 45 1
	.cfi_startproc
	pushq	%rbp
	.seh_pushreg	%rbp
	.cfi_def_cfa_offset 16
	.cfi_offset 6, -16
	movq	%rsp, %rbp
	.seh_setframe	%rbp, 0
	.cfi_def_cfa_register 6
	subq	$80, %rsp
	.seh_stackalloc	80
	.seh_endprologue
	movq	%rcx, 16(%rbp)
	.loc 1 46 13
	movq	16(%rbp), %rax
	movl	196(%rax), %eax
	cmpl	$1, %eax
	je	.L2
	cmpl	$2, %eax
	je	.L3
	testl	%eax, %eax
	jne	.L4
.LBB2:
	.loc 1 48 23
	movq	16(%rbp), %rax
	movq	200(%rax), %rax
	movq	%rax, -8(%rbp)
	.loc 1 51 30
	movq	16(%rbp), %rax
	addq	$64, %rax
	.loc 1 51 24
	movq	%rax, %rcx
	call	atof
	movq	%xmm0, %rax
	movq	%rax, -16(%rbp)
	.loc 1 51 49
	movq	-8(%rbp), %rax
	movsd	(%rax), %xmm0
	.loc 1 51 15
	comisd	-16(%rbp), %xmm0
	ja	.L5
	.loc 1 51 68 discriminator 1
	movq	-8(%rbp), %rax
	movsd	8(%rax), %xmm1
	.loc 1 51 55 discriminator 1
	movsd	-16(%rbp), %xmm0
	comisd	%xmm1, %xmm0
	ja	.L5
	.loc 1 57 13 discriminator 1
	jmp	.L4
.L5:
	.loc 1 52 17
	movq	-8(%rbp), %rax
	movsd	8(%rax), %xmm1
	movq	-8(%rbp), %rax
	movsd	(%rax), %xmm0
	movq	%xmm1, %rax
	movq	%rax, %rdx
	movq	%rdx, %rcx
	movq	%rax, %xmm1
	movq	%xmm0, %rax
	movq	%rax, %rdx
	movq	%rcx, %xmm2
	movq	%xmm1, %r8
	movq	%rdx, %xmm1
	movq	%rax, %rdx
	leaq	.LC0(%rip), %rcx
	call	printf
	.loc 1 53 17
	call	esperarInput
	.loc 1 54 24
	movl	$0, %eax
	jmp	.L8
.L2:
	.loc 1 59 23
	movq	16(%rbp), %rax
	movq	200(%rax), %rax
	movq	%rax, -24(%rbp)
	.loc 1 61 30
	movq	16(%rbp), %rax
	addq	$64, %rax
	.loc 1 61 16
	movq	%rax, %rcx
	call	stringLenght
	movl	%eax, %edx
	.loc 1 61 48
	movq	-24(%rbp), %rax
	movl	(%rax), %eax
	.loc 1 61 15
	cmpl	%eax, %edx
	jle	.L9
	.loc 1 62 17
	movq	-24(%rbp), %rax
	movl	(%rax), %eax
	movl	%eax, %edx
	leaq	.LC1(%rip), %rcx
	call	printf
	.loc 1 63 17
	call	esperarInput
	.loc 1 64 24
	movl	$0, %eax
	jmp	.L8
.L9:
	.loc 1 67 19
	movq	-24(%rbp), %rax
	movq	8(%rax), %rax
	.loc 1 67 15
	testq	%rax, %rax
	je	.L12
	.loc 1 67 36 discriminator 1
	movq	-24(%rbp), %rax
	movq	8(%rax), %rax
	.loc 1 67 47 discriminator 1
	movq	16(%rbp), %rdx
	addq	$64, %rdx
	.loc 1 67 33 discriminator 1
	movq	%rdx, %rcx
	call	*%rax
.LVL0:
	.loc 1 67 29 discriminator 1
	testl	%eax, %eax
	jne	.L12
	.loc 1 68 17
	call	esperarInput
	.loc 1 69 24
	movl	$0, %eax
	jmp	.L8
.L3:
	.loc 1 74 28
	movq	16(%rbp), %rax
	movq	200(%rax), %rax
	movq	%rax, -32(%rbp)
	.loc 1 77 30
	movq	16(%rbp), %rax
	addq	$64, %rax
	.loc 1 77 24
	movq	%rax, %rcx
	call	atoi
	movl	%eax, -36(%rbp)
	.loc 1 77 15
	cmpl	$0, -36(%rbp)
	jle	.L11
	.loc 1 77 62 discriminator 1
	movq	-32(%rbp), %rax
	movl	1024(%rax), %eax
	.loc 1 77 49 discriminator 1
	cmpl	%eax, -36(%rbp)
	jle	.L4
.L11:
	.loc 1 78 17
	leaq	.LC2(%rip), %rcx
	call	puts
	.loc 1 79 17
	call	esperarInput
	.loc 1 80 24
	movl	$0, %eax
	jmp	.L8
.L12:
	.loc 1 72 13
	nop
.L4:
.LBE2:
	.loc 1 84 12
	movl	$1, %eax
.L8:
	.loc 1 85 1
	addq	$80, %rsp
	popq	%rbp
	.cfi_restore 6
	.cfi_def_cfa 7, 8
	ret
	.cfi_endproc
.LFE17:
	.seh_endproc
	.globl	formularioValidar
	.def	formularioValidar;	.scl	2;	.type	32;	.endef
	.seh_proc	formularioValidar
formularioValidar:
.LFB18:
	.loc 1 88 1
	.cfi_startproc
	pushq	%rbp
	.seh_pushreg	%rbp
	.cfi_def_cfa_offset 16
	.cfi_offset 6, -16
	movq	%rsp, %rbp
	.seh_setframe	%rbp, 0
	.cfi_def_cfa_register 6
	subq	$48, %rsp
	.seh_stackalloc	48
	.seh_endprologue
	movq	%rcx, 16(%rbp)
	.loc 1 91 11
	movl	$0, -4(%rbp)
	.loc 1 91 5
	jmp	.L14
.L17:
	.loc 1 92 30
	movq	16(%rbp), %rax
	movl	-4(%rbp), %edx
	movslq	%edx, %rdx
	addq	$424, %rdx
	movq	8(%rax,%rdx,8), %rax
	movq	16(%rbp), %rcx
	call	*%rax
.LVL1:
	.loc 1 92 11
	testl	%eax, %eax
	jne	.L15
	.loc 1 93 20
	movl	$0, %eax
	jmp	.L16
.L15:
	.loc 1 91 28 discriminator 2
	addl	$1, -4(%rbp)
.L14:
	.loc 1 91 21 discriminator 1
	movq	16(%rbp), %rax
	movl	3528(%rax), %eax
	.loc 1 91 5 discriminator 1
	cmpl	%eax, -4(%rbp)
	jl	.L17
	.loc 1 97 12
	movl	$1, %eax
.L16:
	.loc 1 98 1
	addq	$48, %rsp
	popq	%rbp
	.cfi_restore 6
	.cfi_def_cfa 7, 8
	ret
	.cfi_endproc
.LFE18:
	.seh_endproc
	.globl	formularioInit
	.def	formularioInit;	.scl	2;	.type	32;	.endef
	.seh_proc	formularioInit
formularioInit:
.LFB19:
	.loc 1 101 1
	.cfi_startproc
	pushq	%rbp
	.seh_pushreg	%rbp
	.cfi_def_cfa_offset 16
	.cfi_offset 6, -16
	movq	%rsp, %rbp
	.seh_setframe	%rbp, 0
	.cfi_def_cfa_register 6
	subq	$32, %rsp
	.seh_stackalloc	32
	.seh_endprologue
	movq	%rcx, 16(%rbp)
	movq	%rdx, 24(%rbp)
	.loc 1 102 7
	cmpq	$0, 16(%rbp)
	je	.L19
	.loc 1 102 11 discriminator 1
	cmpq	$0, 24(%rbp)
	jne	.L20
.L19:
	.loc 1 103 16
	movl	$6, %eax
	jmp	.L21
.L20:
	.loc 1 106 18
	movq	16(%rbp), %rax
	.loc 1 106 5
	movq	24(%rbp), %rdx
	movl	$64, %r8d
	movq	%rax, %rcx
	call	stringNCopy
	.loc 1 107 11
	movq	16(%rbp), %rax
	movl	$0, 3392(%rax)
	.loc 1 108 11
	movq	16(%rbp), %rax
	movl	$0, 3528(%rax)
	.loc 1 110 12
	movl	$0, %eax
.L21:
	.loc 1 111 1
	addq	$32, %rsp
	popq	%rbp
	.cfi_restore 6
	.cfi_def_cfa 7, 8
	ret
	.cfi_endproc
.LFE19:
	.seh_endproc
	.globl	formularioAgregarCampoVA
	.def	formularioAgregarCampoVA;	.scl	2;	.type	32;	.endef
	.seh_proc	formularioAgregarCampoVA
formularioAgregarCampoVA:
.LFB20:
	.loc 1 114 1
	.cfi_startproc
	pushq	%rbp
	.seh_pushreg	%rbp
	.cfi_def_cfa_offset 16
	.cfi_offset 6, -16
	movq	%rsp, %rbp
	.seh_setframe	%rbp, 0
	.cfi_def_cfa_register 6
	subq	$96, %rsp
	.seh_stackalloc	96
	.seh_endprologue
	movq	%rcx, 16(%rbp)
	movq	%rdx, 24(%rbp)
	movl	%r8d, 32(%rbp)
	movl	%r9d, 40(%rbp)
	.loc 1 115 7
	cmpq	$0, 16(%rbp)
	je	.L23
	.loc 1 115 11 discriminator 1
	cmpq	$0, 24(%rbp)
	je	.L23
	.loc 1 115 24 discriminator 2
	cmpl	$0, 40(%rbp)
	js	.L23
	.loc 1 115 36 discriminator 3
	cmpl	$2, 40(%rbp)
	jle	.L24
.L23:
	.loc 1 116 16
	movl	$6, %eax
	jmp	.L40
.L24:
	.loc 1 119 9
	movq	16(%rbp), %rax
	movl	3392(%rax), %eax
	.loc 1 119 7
	cmpl	$16, %eax
	jne	.L26
	.loc 1 120 16
	movl	$2, %eax
	jmp	.L40
.L26:
	.loc 1 123 16
	movq	16(%rbp), %rax
	leaq	64(%rax), %rdx
	.loc 1 123 29
	movq	16(%rbp), %rax
	movl	3392(%rax), %eax
	cltq
	.loc 1 123 26
	imulq	$208, %rax, %rax
	.loc 1 123 12
	addq	%rdx, %rax
	movq	%rax, -16(%rbp)
	.loc 1 125 4
	leaq	48(%rbp), %rax
	movq	%rax, -56(%rbp)
	.loc 1 127 18
	movq	-16(%rbp), %rax
	.loc 1 127 5
	movq	24(%rbp), %rdx
	movl	$64, %r8d
	movq	%rax, %rcx
	call	stringNCopy
	.loc 1 128 17
	movq	-16(%rbp), %rax
	movl	32(%rbp), %edx
	movl	%edx, 192(%rax)
	.loc 1 129 13
	movq	-16(%rbp), %rax
	movl	40(%rbp), %edx
	movl	%edx, 196(%rax)
	cmpl	$1, 40(%rbp)
	je	.L27
	cmpl	$2, 40(%rbp)
	je	.L28
	cmpl	$0, 40(%rbp)
	jne	.L29
.LBB3:
	.loc 1 133 23
	movl	$16, %ecx
	call	malloc
	movq	%rax, %rdx
	.loc 1 133 21
	movq	-16(%rbp), %rax
	movq	%rdx, 200(%rax)
	.loc 1 135 19
	movq	-16(%rbp), %rax
	movq	200(%rax), %rax
	.loc 1 135 15
	testq	%rax, %rax
	jne	.L30
	.loc 1 136 24
	movl	$2, %eax
	jmp	.L40
.L30:
	.loc 1 139 23
	movq	-16(%rbp), %rax
	movq	200(%rax), %rax
	movq	%rax, -24(%rbp)
	.loc 1 141 23
	movq	-56(%rbp), %rax
	leaq	8(%rax), %rdx
	movq	%rdx, -56(%rbp)
	movsd	(%rax), %xmm0
	.loc 1 141 22
	movq	-24(%rbp), %rax
	movsd	%xmm0, (%rax)
	.loc 1 142 23
	movq	-56(%rbp), %rax
	leaq	8(%rax), %rdx
	movq	%rdx, -56(%rbp)
	movsd	(%rax), %xmm0
	.loc 1 142 22
	movq	-24(%rbp), %rax
	movsd	%xmm0, 8(%rax)
	.loc 1 144 19
	movq	-24(%rbp), %rax
	movsd	(%rax), %xmm0
	.loc 1 144 31
	movq	-24(%rbp), %rax
	movsd	8(%rax), %xmm1
	.loc 1 144 15
	comisd	%xmm1, %xmm0
	jnb	.L41
	.loc 1 149 13
	jmp	.L33
.L41:
	.loc 1 145 17
	movq	-16(%rbp), %rax
	movq	200(%rax), %rax
	movq	%rax, %rcx
	call	free
	.loc 1 146 24
	movl	$6, %eax
	jmp	.L40
.L27:
	.loc 1 151 23
	movl	$24, %ecx
	call	malloc
	movq	%rax, %rdx
	.loc 1 151 21
	movq	-16(%rbp), %rax
	movq	%rdx, 200(%rax)
	.loc 1 153 19
	movq	-16(%rbp), %rax
	movq	200(%rax), %rax
	.loc 1 153 15
	testq	%rax, %rax
	jne	.L34
	.loc 1 154 24
	movl	$2, %eax
	jmp	.L40
.L34:
	.loc 1 157 23
	movq	-16(%rbp), %rax
	movq	200(%rax), %rax
	movq	%rax, -32(%rbp)
	.loc 1 159 23
	movq	-56(%rbp), %rax
	leaq	8(%rax), %rdx
	movq	%rdx, -56(%rbp)
	movl	(%rax), %edx
	.loc 1 159 22
	movq	-32(%rbp), %rax
	movl	%edx, (%rax)
	.loc 1 160 27
	movq	-56(%rbp), %rax
	leaq	8(%rax), %rdx
	movq	%rdx, -56(%rbp)
	movq	(%rax), %rdx
	.loc 1 160 26
	movq	-32(%rbp), %rax
	movq	%rdx, 8(%rax)
	.loc 1 161 27
	movq	-56(%rbp), %rax
	leaq	8(%rax), %rdx
	movq	%rdx, -56(%rbp)
	movq	(%rax), %rdx
	.loc 1 161 26
	movq	-32(%rbp), %rax
	movq	%rdx, 16(%rax)
	.loc 1 163 19
	movq	-32(%rbp), %rax
	movl	(%rax), %eax
	.loc 1 163 15
	testl	%eax, %eax
	jns	.L42
	.loc 1 164 17
	movq	-16(%rbp), %rax
	movq	200(%rax), %rax
	movq	%rax, %rcx
	call	free
	.loc 1 165 24
	movl	$6, %eax
	jmp	.L40
.L28:
	.loc 1 170 23
	movl	$1028, %ecx
	call	malloc
	movq	%rax, %rdx
	.loc 1 170 21
	movq	-16(%rbp), %rax
	movq	%rdx, 200(%rax)
	.loc 1 172 19
	movq	-16(%rbp), %rax
	movq	200(%rax), %rax
	.loc 1 172 15
	testq	%rax, %rax
	jne	.L36
	.loc 1 173 24
	movl	$2, %eax
	jmp	.L40
.L36:
	.loc 1 176 28
	movq	-16(%rbp), %rax
	movq	200(%rax), %rax
	movq	%rax, -40(%rbp)
	.loc 1 179 32
	movq	-56(%rbp), %rax
	leaq	8(%rax), %rdx
	movq	%rdx, -56(%rbp)
	movl	(%rax), %edx
	.loc 1 179 31
	movq	-40(%rbp), %rax
	movl	%edx, 1024(%rax)
	.loc 1 180 20
	movq	-56(%rbp), %rax
	leaq	8(%rax), %rdx
	movq	%rdx, -56(%rbp)
	movq	(%rax), %rax
	movq	%rax, -48(%rbp)
	.loc 1 182 19
	movl	$0, -4(%rbp)
	.loc 1 182 13
	jmp	.L37
.L38:
	.loc 1 183 50 discriminator 3
	movl	-4(%rbp), %eax
	cltq
	leaq	0(,%rax,8), %rdx
	movq	-48(%rbp), %rax
	addq	%rdx, %rax
	.loc 1 183 17 discriminator 3
	movq	(%rax), %rdx
	.loc 1 183 42 discriminator 3
	movl	-4(%rbp), %eax
	cltq
	salq	$6, %rax
	movq	%rax, %rcx
	movq	-40(%rbp), %rax
	addq	%rcx, %rax
	.loc 1 183 17 discriminator 3
	movl	$64, %r8d
	movq	%rax, %rcx
	call	stringNCopy
	.loc 1 182 48 discriminator 3
	addl	$1, -4(%rbp)
.L37:
	.loc 1 182 31 discriminator 1
	movq	-40(%rbp), %rax
	movl	1024(%rax), %eax
	.loc 1 182 13 discriminator 1
	cmpl	%eax, -4(%rbp)
	jl	.L38
	.loc 1 186 19
	movq	-40(%rbp), %rax
	movl	1024(%rax), %eax
	.loc 1 186 15
	testl	%eax, %eax
	jns	.L43
	.loc 1 187 17
	movq	-16(%rbp), %rax
	movq	200(%rax), %rax
	movq	%rax, %rcx
	call	free
	.loc 1 188 24
	movl	$6, %eax
	jmp	.L40
.L29:
	.loc 1 193 20
	movl	$6, %eax
	jmp	.L40
.L42:
	.loc 1 168 13
	nop
	jmp	.L33
.L43:
	.loc 1 191 13
	nop
.L33:
.LBE3:
	.loc 1 197 6
	movq	16(%rbp), %rax
	movl	3392(%rax), %eax
	.loc 1 197 10
	leal	1(%rax), %edx
	movq	16(%rbp), %rax
	movl	%edx, 3392(%rax)
	.loc 1 199 12
	movl	$0, %eax
.L40:
	.loc 1 200 1 discriminator 1
	addq	$96, %rsp
	popq	%rbp
	.cfi_restore 6
	.cfi_def_cfa 7, 8
	ret
	.cfi_endproc
.LFE20:
	.seh_endproc
	.globl	formularioAgregarValidado
	.def	formularioAgregarValidado;	.scl	2;	.type	32;	.endef
	.seh_proc	formularioAgregarValidado
formularioAgregarValidado:
.LFB21:
	.loc 1 203 1
	.cfi_startproc
	pushq	%rbp
	.seh_pushreg	%rbp
	.cfi_def_cfa_offset 16
	.cfi_offset 6, -16
	movq	%rsp, %rbp
	.seh_setframe	%rbp, 0
	.cfi_def_cfa_register 6
	.seh_endprologue
	movq	%rcx, 16(%rbp)
	movq	%rdx, 24(%rbp)
	.loc 1 204 7
	cmpq	$0, 16(%rbp)
	je	.L45
	.loc 1 204 11 discriminator 1
	cmpq	$0, 24(%rbp)
	jne	.L46
.L45:
	.loc 1 205 16
	movl	$6, %eax
	jmp	.L47
.L46:
	.loc 1 208 9
	movq	16(%rbp), %rax
	movl	3528(%rax), %eax
	.loc 1 208 7
	cmpl	$16, %eax
	jne	.L48
	.loc 1 209 16
	movl	$2, %eax
	jmp	.L47
.L48:
	.loc 1 212 24
	movq	16(%rbp), %rax
	movl	3528(%rax), %edx
	.loc 1 212 30
	movq	16(%rbp), %rax
	movslq	%edx, %rdx
	addq	$424, %rdx
	movq	24(%rbp), %rcx
	movq	%rcx, 8(%rax,%rdx,8)
	.loc 1 213 6
	movq	16(%rbp), %rax
	movl	3528(%rax), %eax
	.loc 1 213 10
	leal	1(%rax), %edx
	movq	16(%rbp), %rax
	movl	%edx, 3528(%rax)
	.loc 1 215 12
	movl	$0, %eax
.L47:
	.loc 1 216 1
	popq	%rbp
	.cfi_restore 6
	.cfi_def_cfa 7, 8
	ret
	.cfi_endproc
.LFE21:
	.seh_endproc
	.section .rdata,"dr"
.LC3:
	.ascii "\33[2J\33[H\0"
	.align 8
.LC4:
	.ascii "\33[1m---------\33[1;33m%s\33[0m\33[1m---------\12\33[0m\0"
.LC5:
	.ascii "\33[1m\33[1;36m%s: \33[0m\0"
.LC6:
	.ascii "\0"
.LC7:
	.ascii "\33[2m\33[0;37m%d - [%s]\33[0m\12\0"
.LC8:
	.ascii "Su seleccion: \0"
.LC9:
	.ascii "%0d - \33[1m\33[1;36m%s\33[0m\12\0"
	.align 8
.LC10:
	.ascii "\33[1m\33[0;37mEsta conforme?\11\33[1;32mY\33[0m/\33[1;31mN\33[0m\12\0"
	.text
	.globl	formularioPublicar
	.def	formularioPublicar;	.scl	2;	.type	32;	.endef
	.seh_proc	formularioPublicar
formularioPublicar:
.LFB22:
	.loc 1 219 1
	.cfi_startproc
	pushq	%rbp
	.seh_pushreg	%rbp
	.cfi_def_cfa_offset 16
	.cfi_offset 6, -16
	movq	%rsp, %rbp
	.seh_setframe	%rbp, 0
	.cfi_def_cfa_register 6
	subq	$80, %rsp
	.seh_stackalloc	80
	.seh_endprologue
	movq	%rcx, 16(%rbp)
	.loc 1 221 12
	movl	$0, -12(%rbp)
.L58:
	.loc 1 229 13
	call	esperarInput
	.loc 1 230 13
	call	flushStdin
	.loc 1 232 19
	movl	$0, -4(%rbp)
	.loc 1 232 13
	jmp	.L50
.L55:
	.loc 1 234 21
	leaq	.LC3(%rip), %rcx
	call	puts
	.loc 1 235 114
	movq	16(%rbp), %rax
	.loc 1 235 21
	movq	%rax, %rdx
	leaq	.LC4(%rip), %rcx
	call	printf
	.loc 1 236 26
	movq	16(%rbp), %rax
	leaq	64(%rax), %rdx
	.loc 1 236 36
	movl	-4(%rbp), %eax
	cltq
	imulq	$208, %rax, %rax
	.loc 1 236 23
	addq	%rdx, %rax
	movq	%rax, -24(%rbp)
	.loc 1 237 70
	movq	-24(%rbp), %rax
	.loc 1 237 21
	movq	%rax, %rdx
	leaq	.LC5(%rip), %rcx
	call	printf
	.loc 1 239 25
	movq	-24(%rbp), %rax
	movl	196(%rax), %eax
	.loc 1 239 23
	cmpl	$2, %eax
	jne	.L51
.LBB4:
	.loc 1 240 44
	movq	-24(%rbp), %rax
	movq	200(%rax), %rax
	movq	%rax, -32(%rbp)
	.loc 1 240 63
	leaq	.LC6(%rip), %rcx
	call	puts
	.loc 1 240 90
	movl	$0, -8(%rbp)
	.loc 1 240 82
	jmp	.L52
.L53:
	.loc 1 240 212 discriminator 3
	movl	-8(%rbp), %eax
	cltq
	salq	$6, %rax
	movq	%rax, %rdx
	movq	-32(%rbp), %rax
	addq	%rax, %rdx
	.loc 1 240 130 discriminator 3
	movl	-8(%rbp), %eax
	addl	$1, %eax
	movq	%rdx, %r8
	movl	%eax, %edx
	leaq	.LC7(%rip), %rcx
	call	printf
	.loc 1 240 125 discriminator 3
	addl	$1, -8(%rbp)
.L52:
	.loc 1 240 106 discriminator 1
	movq	-32(%rbp), %rax
	movl	1024(%rax), %eax
	.loc 1 240 82 discriminator 1
	cmpl	%eax, -8(%rbp)
	jl	.L53
.L51:
.LBE4:
	.loc 1 243 33
	movq	-24(%rbp), %rax
	addq	$64, %rax
	.loc 1 243 21
	movl	$128, %edx
	movq	%rax, %rcx
	call	scanString
	.loc 1 244 25
	movq	-24(%rbp), %rax
	movl	192(%rax), %eax
	.loc 1 244 17
	testl	%eax, %eax
	je	.L54
	.loc 1 244 40 discriminator 1
	movq	-24(%rbp), %rax
	movq	%rax, %rcx
	call	campoValidar
	.loc 1 244 36 discriminator 1
	testl	%eax, %eax
	je	.L55
.L54:
	.loc 1 246 21
	movq	-24(%rbp), %rax
	movl	196(%rax), %eax
	.loc 1 246 19
	cmpl	$2, %eax
	jne	.L56
.LBB5:
	.loc 1 247 40
	movq	-24(%rbp), %rax
	movq	200(%rax), %rax
	movq	%rax, -40(%rbp)
	.loc 1 247 110
	movq	-24(%rbp), %rax
	addq	$64, %rax
	.loc 1 247 104
	movq	%rax, %rcx
	call	atoi
	.loc 1 247 124
	subl	$1, %eax
	.loc 1 247 102
	cltq
	salq	$6, %rax
	movq	%rax, %rdx
	movq	-40(%rbp), %rax
	addq	%rax, %rdx
	.loc 1 247 74
	movq	-24(%rbp), %rax
	addq	$64, %rax
	.loc 1 247 59
	movl	$128, %r8d
	movq	%rax, %rcx
	call	stringNCopy
.L56:
.LBE5:
	.loc 1 232 36 discriminator 2
	addl	$1, -4(%rbp)
.L50:
	.loc 1 232 29 discriminator 1
	movq	16(%rbp), %rax
	movl	3392(%rax), %eax
	.loc 1 232 13 discriminator 1
	cmpl	%eax, -4(%rbp)
	jl	.L55
	.loc 1 250 17
	movq	16(%rbp), %rax
	movl	3528(%rax), %eax
	.loc 1 250 9
	testl	%eax, %eax
	je	.L57
	.loc 1 250 26 discriminator 1
	movq	16(%rbp), %rcx
	call	formularioValidar
	.loc 1 250 22 discriminator 1
	testl	%eax, %eax
	je	.L58
.L57:
	.loc 1 252 9
	leaq	.LC3(%rip), %rcx
	call	puts
	.loc 1 253 102
	movq	16(%rbp), %rax
	.loc 1 253 9
	movq	%rax, %rdx
	leaq	.LC4(%rip), %rcx
	call	printf
	.loc 1 255 9
	leaq	.LC8(%rip), %rcx
	call	puts
	.loc 1 256 15
	movl	$0, -4(%rbp)
	.loc 1 256 9
	jmp	.L59
.L60:
	.loc 1 257 18 discriminator 3
	movq	16(%rbp), %rax
	leaq	64(%rax), %rdx
	.loc 1 257 28 discriminator 3
	movl	-4(%rbp), %eax
	cltq
	imulq	$208, %rax, %rax
	.loc 1 257 15 discriminator 3
	addq	%rdx, %rax
	movq	%rax, -24(%rbp)
	.loc 1 258 82 discriminator 3
	movq	-24(%rbp), %rax
	leaq	64(%rax), %rdx
	.loc 1 258 13 discriminator 3
	movl	-4(%rbp), %eax
	addl	$1, %eax
	movq	%rdx, %r8
	movl	%eax, %edx
	leaq	.LC9(%rip), %rcx
	call	printf
	.loc 1 256 32 discriminator 3
	addl	$1, -4(%rbp)
.L59:
	.loc 1 256 25 discriminator 1
	movq	16(%rbp), %rax
	movl	3392(%rax), %eax
	.loc 1 256 9 discriminator 1
	cmpl	%eax, -4(%rbp)
	jl	.L60
.L62:
	.loc 1 262 13 discriminator 2
	leaq	.LC10(%rip), %rcx
	call	puts
	.loc 1 263 24 discriminator 2
	call	getchar
	movl	%eax, %ecx
	call	toUpper
	movl	%eax, -12(%rbp)
	.loc 1 264 9 discriminator 2
	cmpl	$89, -12(%rbp)
	je	.L61
	.loc 1 264 32 discriminator 1
	cmpl	$78, -12(%rbp)
	jne	.L62
.L61:
	.loc 1 266 42
	cmpl	$89, -12(%rbp)
	sete	%al
	.loc 1 266 18
	movzbl	%al, %eax
	movl	%eax, -12(%rbp)
	.loc 1 267 5
	cmpl	$0, -12(%rbp)
	je	.L58
	.loc 1 269 12
	movl	$0, %eax
	.loc 1 270 1
	addq	$80, %rsp
	popq	%rbp
	.cfi_restore 6
	.cfi_def_cfa 7, 8
	ret
	.cfi_endproc
.LFE22:
	.seh_endproc
	.globl	formularioRespuesta
	.def	formularioRespuesta;	.scl	2;	.type	32;	.endef
	.seh_proc	formularioRespuesta
formularioRespuesta:
.LFB23:
	.loc 1 273 1
	.cfi_startproc
	pushq	%rbp
	.seh_pushreg	%rbp
	.cfi_def_cfa_offset 16
	.cfi_offset 6, -16
	movq	%rsp, %rbp
	.seh_setframe	%rbp, 0
	.cfi_def_cfa_register 6
	subq	$64, %rsp
	.seh_stackalloc	64
	.seh_endprologue
	movq	%rcx, 16(%rbp)
	movl	%edx, 24(%rbp)
	.loc 1 274 7
	cmpq	$0, 16(%rbp)
	je	.L65
	.loc 1 274 11 discriminator 1
	cmpl	$0, 24(%rbp)
	js	.L65
	.loc 1 274 28 discriminator 2
	movq	16(%rbp), %rax
	movl	3392(%rax), %eax
	.loc 1 274 20 discriminator 2
	cmpl	%eax, 24(%rbp)
	jle	.L66
.L65:
	.loc 1 275 15
	movl	$0, %eax
	jmp	.L67
.L66:
	.loc 1 278 16
	movq	16(%rbp), %rax
	leaq	64(%rax), %rdx
	.loc 1 278 26
	movl	24(%rbp), %eax
	cltq
	imulq	$208, %rax, %rax
	.loc 1 278 12
	addq	%rdx, %rax
	movq	%rax, -16(%rbp)
	.loc 1 279 23
	movq	-16(%rbp), %rax
	movl	196(%rax), %eax
	.loc 1 279 46
	cmpl	$1, %eax
	jne	.L68
	.loc 1 279 46 is_stmt 0 discriminator 1
	movq	-16(%rbp), %rax
	movq	200(%rax), %rax
	jmp	.L69
.L68:
	.loc 1 279 46 discriminator 2
	movl	$0, %eax
.L69:
	.loc 1 279 15 is_stmt 1 discriminator 4
	movq	%rax, -24(%rbp)
	.loc 1 282 9 discriminator 4
	movq	-16(%rbp), %rax
	addq	$64, %rax
	movq	%rax, -8(%rbp)
	.loc 1 284 7 discriminator 4
	cmpq	$0, -24(%rbp)
	je	.L70
	.loc 1 285 18
	movq	-24(%rbp), %rax
	movq	16(%rax), %rax
	.loc 1 285 29
	movq	-16(%rbp), %rdx
	addq	$64, %rdx
	.loc 1 285 15
	movq	%rdx, %rcx
	call	*%rax
.LVL2:
	movq	%rax, -8(%rbp)
.L70:
	.loc 1 288 12
	movq	-8(%rbp), %rax
.L67:
	.loc 1 289 1
	addq	$64, %rsp
	popq	%rbp
	.cfi_restore 6
	.cfi_def_cfa 7, 8
	ret
	.cfi_endproc
.LFE23:
	.seh_endproc
	.globl	formularioRawRespuesta
	.def	formularioRawRespuesta;	.scl	2;	.type	32;	.endef
	.seh_proc	formularioRawRespuesta
formularioRawRespuesta:
.LFB24:
	.loc 1 292 1
	.cfi_startproc
	pushq	%rbp
	.seh_pushreg	%rbp
	.cfi_def_cfa_offset 16
	.cfi_offset 6, -16
	movq	%rsp, %rbp
	.seh_setframe	%rbp, 0
	.cfi_def_cfa_register 6
	subq	$16, %rsp
	.seh_stackalloc	16
	.seh_endprologue
	movq	%rcx, 16(%rbp)
	movl	%edx, 24(%rbp)
	.loc 1 293 7
	cmpq	$0, 16(%rbp)
	je	.L72
	.loc 1 293 11 discriminator 1
	cmpl	$0, 24(%rbp)
	js	.L72
	.loc 1 293 28 discriminator 2
	movq	16(%rbp), %rax
	movl	3392(%rax), %eax
	.loc 1 293 20 discriminator 2
	cmpl	%eax, 24(%rbp)
	jle	.L73
.L72:
	.loc 1 294 15
	movl	$0, %eax
	jmp	.L74
.L73:
	.loc 1 297 16
	movq	16(%rbp), %rax
	leaq	64(%rax), %rdx
	.loc 1 297 26
	movl	24(%rbp), %eax
	cltq
	imulq	$208, %rax, %rax
	.loc 1 297 12
	addq	%rdx, %rax
	movq	%rax, -8(%rbp)
	.loc 1 299 12
	movq	-8(%rbp), %rax
	addq	$64, %rax
.L74:
	.loc 1 300 1
	addq	$16, %rsp
	popq	%rbp
	.cfi_restore 6
	.cfi_def_cfa 7, 8
	ret
	.cfi_endproc
.LFE24:
	.seh_endproc
	.globl	formularioDestruir
	.def	formularioDestruir;	.scl	2;	.type	32;	.endef
	.seh_proc	formularioDestruir
formularioDestruir:
.LFB25:
	.loc 1 303 1
	.cfi_startproc
	pushq	%rbp
	.seh_pushreg	%rbp
	.cfi_def_cfa_offset 16
	.cfi_offset 6, -16
	movq	%rsp, %rbp
	.seh_setframe	%rbp, 0
	.cfi_def_cfa_register 6
	subq	$48, %rsp
	.seh_stackalloc	48
	.seh_endprologue
	movq	%rcx, 16(%rbp)
	.loc 1 304 12
	movq	16(%rbp), %rax
	addq	$64, %rax
	movq	%rax, -8(%rbp)
	.loc 1 307 11
	movl	$0, -12(%rbp)
	.loc 1 307 5
	jmp	.L76
.L77:
	.loc 1 308 9 discriminator 3
	movq	-8(%rbp), %rax
	movq	200(%rax), %rax
	movq	%rax, %rcx
	call	free
	.loc 1 307 28 discriminator 3
	addl	$1, -12(%rbp)
	.loc 1 307 33 discriminator 3
	addq	$208, -8(%rbp)
.L76:
	.loc 1 307 21 discriminator 1
	movq	16(%rbp), %rax
	movl	3392(%rax), %eax
	.loc 1 307 5 discriminator 1
	cmpl	%eax, -12(%rbp)
	jl	.L77
	.loc 1 311 12
	movl	$0, %eax
	.loc 1 312 1
	addq	$48, %rsp
	popq	%rbp
	.cfi_restore 6
	.cfi_def_cfa 7, 8
	ret
	.cfi_endproc
.LFE25:
	.seh_endproc
.Letext0:
	.file 2 "C:/Program Files/CodeBlocks/MinGW/x86_64-w64-mingw32/include/stdarg.h"
	.file 3 "C:/Program Files/CodeBlocks/MinGW/x86_64-w64-mingw32/include/crtdefs.h"
	.file 4 "C:/Program Files/CodeBlocks/MinGW/x86_64-w64-mingw32/include/stdlib.h"
	.file 5 "C:/Program Files/CodeBlocks/MinGW/x86_64-w64-mingw32/include/malloc.h"
	.file 6 "C:/Program Files/CodeBlocks/MinGW/x86_64-w64-mingw32/include/ctype.h"
	.file 7 "C:/Users/LENOVO/OneDrive/Escritorio/TP_T\363picos_2025_2c_jueves_LOS_FUNDAMENTALISTAS_DE_LINUX/formulario.h"