	.file	"herramientasAperturas.c"
	.text
.Ltext0:
	.cfi_sections	.debug_frame
	.section .rdata,"dr"
.LC0:
	.ascii "%s\0"
.LC1:
	.ascii "\33[2J\33[H\0"
	.align 8
.LC2:
	.ascii "El alquiler original de \33[1m\33[1;36m$%s\33[0m a la fecha \33[1m\33[1;36m%s\33[0m en la region \33[1m\33[1;36m%s\33[0m, ha variado en un \33[1m\33[1;33m%%%s\33[0m hacia un total ajustado de \33[1m\33[1;33m$%s\33[0m al periodo \33[1m\33[1;36m%s\33[0m\12\0"
.LC3:
	.ascii "Periodo\0"
	.align 8
.LC4:
	.ascii "\33[1m%-*s\11 | %-*s\11 | %-*s\11 | %-*s\33[0m\12\0"
.LC5:
	.ascii "Monto ajustado\0"
.LC6:
	.ascii "Variacion%\0"
.LC7:
	.ascii "Indice\0"
	.align 8
.LC8:
	.ascii "\33[1m\33[1;37m-------------------------------------------------------------------------------------------------\33[0m\0"
	.align 8
.LC9:
	.ascii "./archivos/pruebaAlquileres.dat\0"
	.align 8
.LC10:
	.ascii "\33[1mContenidos del archivo binario\12\33[0m\0"
	.text
	.globl	herramientaCalcularAlquilerIPCAperturas
	.def	herramientaCalcularAlquilerIPCAperturas;	.scl	2;	.type	32;	.endef
	.seh_proc	herramientaCalcularAlquilerIPCAperturas
herramientaCalcularAlquilerIPCAperturas:
.LFB17:
	.file 1 "C:/Users/LENOVO/OneDrive/Escritorio/TP_T\363picos_2025_2c_jueves_LOS_FUNDAMENTALISTAS_DE_LINUX/herramientasAperturas.c"
	.loc 1 12 1
	.cfi_startproc
	pushq	%rbp
	.seh_pushreg	%rbp
	.cfi_def_cfa_offset 16
	.cfi_offset 6, -16
	subq	$304, %rsp
	.seh_stackalloc	304
	.cfi_def_cfa_offset 320
	leaq	128(%rsp), %rbp
	.seh_setframe	%rbp, 128
	.cfi_def_cfa 6, 192
	.seh_endprologue
	movq	%rcx, 192(%rbp)
	.loc 1 15 10
	movq	$0, 49(%rbp)
	movl	$0, 57(%rbp)
	movw	$0, 61(%rbp)
	movb	$0, 63(%rbp)
	.loc 1 17 11
	leaq	-48(%rbp), %rax
	movq	%rax, %rcx
	call	preguntarAlquileres
	movq	-48(%rbp), %rax
	movq	%rax, 64(%rbp)
	movq	-40(%rbp), %rax
	movq	%rax, 72(%rbp)
	movq	-32(%rbp), %rax
	movq	%rax, 80(%rbp)
	movq	-24(%rbp), %rax
	movq	%rax, 88(%rbp)
	movq	-16(%rbp), %rax
	movq	%rax, 96(%rbp)
	movq	-8(%rbp), %rax
	movq	%rax, 104(%rbp)
	movq	0(%rbp), %rax
	movq	%rax, 112(%rbp)
	movq	8(%rbp), %rax
	movq	%rax, 120(%rbp)
	movq	16(%rbp), %rax
	movq	%rax, 128(%rbp)
	movq	24(%rbp), %rax
	movq	%rax, 136(%rbp)
	movzbl	32(%rbp), %eax
	movb	%al, 144(%rbp)
	.loc 1 19 18
	leaq	64(%rbp), %rax
	movq	%rax, %r8
	leaq	filtrarAlquileres(%rip), %rdx
	movq	192(%rbp), %rcx
	call	filtrarVector
	movq	%rax, 168(%rbp)
	.loc 1 21 5
	leaq	64(%rbp), %rax
	leaq	48(%rax), %rdx
	leaq	49(%rbp), %rax
	movl	$15, %r8d
	movq	%rax, %rcx
	call	stringNCopy
	.loc 1 22 50
	movq	168(%rbp), %rax
	movl	$0, %edx
	movq	%rax, %rcx
	call	vectorObtener
	.loc 1 22 79
	leaq	146(%rax), %rdx
	.loc 1 22 5
	leaq	64(%rbp), %rax
	addq	$63, %rax
	movq	%rdx, %r8
	leaq	.LC0(%rip), %rdx
	movq	%rax, %rcx
	call	sprintf
	.loc 1 24 18
	leaq	64(%rbp), %rdx
	movq	168(%rbp), %rax
	movq	%rdx, %r9
	movl	$84, %r8d
	leaq	mapearAlquileres(%rip), %rdx
	movq	%rax, %rcx
	call	mapearVector
	movq	%rax, 168(%rbp)
	.loc 1 28 55
	movq	168(%rbp), %rax
	movq	%rax, %rcx
	call	vectorCantElem
	.loc 1 28 29
	leaq	-1(%rax), %rdx
	movq	168(%rbp), %rax
	movq	%rax, %rcx
	call	vectorObtener
	movq	%rax, 160(%rbp)
	.loc 1 29 5
	leaq	.LC1(%rip), %rcx
	call	puts
	.loc 1 33 96
	movq	160(%rbp), %r10
	.loc 1 33 73
	movq	160(%rbp), %rax
	leaq	66(%rax), %r9
	.loc 1 33 51
	movq	160(%rbp), %rax
	leaq	48(%rax), %r8
	.loc 1 30 5
	leaq	49(%rbp), %rcx
	leaq	64(%rbp), %rdx
	leaq	64(%rbp), %rax
	addq	$30, %rax
	movq	%r10, 48(%rsp)
	movq	%r9, 40(%rsp)
	movq	%r8, 32(%rsp)
	movq	%rcx, %r9
	movq	%rdx, %r8
	movq	%rax, %rdx
	leaq	.LC2(%rip), %rcx
	call	printf
	.loc 1 35 5
	call	esperarInput
	.loc 1 37 5
	leaq	.LC1(%rip), %rcx
	call	puts
	.loc 1 38 5
	leaq	.LC5(%rip), %rax
	movq	%rax, 64(%rsp)
	movl	$18, 56(%rsp)
	leaq	.LC6(%rip), %rax
	movq	%rax, 48(%rsp)
	movl	$18, 40(%rsp)
	leaq	.LC7(%rip), %rax
	movq	%rax, 32(%rsp)
	movl	$18, %r9d
	leaq	.LC3(%rip), %r8
	movl	$30, %edx
	leaq	.LC4(%rip), %rcx
	call	printf
	.loc 1 39 5
	leaq	.LC8(%rip), %rcx
	call	puts
	.loc 1 41 5
	movq	168(%rbp), %rax
	leaq	mostrarAlquileres(%rip), %rdx
	movq	%rax, %rcx
	call	mostrarVector
	.loc 1 43 5
	call	esperarInput
	.loc 1 45 5
	movq	168(%rbp), %rax
	leaq	.LC9(%rip), %rdx
	movq	%rax, %rcx
	call	vectorEscribirABinario
	.loc 1 46 5
	movq	168(%rbp), %rax
	leaq	.LC9(%rip), %rdx
	movq	%rax, %rcx
	call	vectorLeerDeBinario
	.loc 1 48 5
	leaq	.LC1(%rip), %rcx
	call	puts
	.loc 1 49 5
	leaq	.LC10(%rip), %rcx
	call	printf
	.loc 1 50 5
	leaq	.LC5(%rip), %rax
	movq	%rax, 64(%rsp)
	movl	$18, 56(%rsp)
	leaq	.LC6(%rip), %rax
	movq	%rax, 48(%rsp)
	movl	$18, 40(%rsp)
	leaq	.LC7(%rip), %rax
	movq	%rax, 32(%rsp)
	movl	$18, %r9d
	leaq	.LC3(%rip), %r8
	movl	$30, %edx
	leaq	.LC4(%rip), %rcx
	call	printf
	.loc 1 51 5
	leaq	.LC8(%rip), %rcx
	call	puts
	.loc 1 52 5
	movq	168(%rbp), %rax
	leaq	mostrarAlquileres(%rip), %rdx
	movq	%rax, %rcx
	call	mostrarVector
	.loc 1 54 5
	call	esperarInput
	.loc 1 56 5
	movq	168(%rbp), %rax
	movq	%rax, %rcx
	call	vectorDestruir
	.loc 1 58 12
	movl	$0, %eax
	.loc 1 59 1
	addq	$304, %rsp
	popq	%rbp
	.cfi_restore 6
	.cfi_def_cfa 7, -296
	ret
	.cfi_endproc
.LFE17:
	.seh_endproc
	.section .rdata,"dr"
.LC11:
	.ascii "Nacional\0"
.LC12:
	.ascii "GBA\0"
.LC13:
	.ascii "Pampeana\0"
.LC14:
	.ascii "Cuyo\0"
.LC15:
	.ascii "Noroeste\0"
.LC16:
	.ascii "Noreste\0"
.LC17:
	.ascii "Patagonia\0"
	.align 8
.LC18:
	.ascii "Calcular alquileres por inflacion\0"
	.align 8
.LC19:
	.ascii "Ingrese monto del alquiler ($)\0"
.LC22:
	.ascii "Seleccione region de analisis\0"
	.align 8
.LC23:
	.ascii "Ingrese periodo de inicio del contrato (AAAA-MM)\0"
	.text
	.globl	preguntarAlquileres
	.def	preguntarAlquileres;	.scl	2;	.type	32;	.endef
	.seh_proc	preguntarAlquileres
preguntarAlquileres:
.LFB18:
	.loc 1 62 1
	.cfi_startproc
	pushq	%rbp
	.seh_pushreg	%rbp
	.cfi_def_cfa_offset 16
	.cfi_offset 6, -16
	pushq	%rdi
	.seh_pushreg	%rdi
	.cfi_def_cfa_offset 24
	.cfi_offset 5, -24
	subq	$3832, %rsp
	.seh_stackalloc	3832
	.cfi_def_cfa_offset 3856
	leaq	128(%rsp), %rbp
	.seh_setframe	%rbp, 128
	.cfi_def_cfa 6, 3728
	.seh_endprologue
	movq	%rcx, 3728(%rbp)
	.loc 1 66 11
	leaq	-64(%rbp), %rdx
	movl	$0, %eax
	movl	$15, %ecx
	movq	%rdx, %rdi
	rep stosq
	leaq	.LC11(%rip), %rax
	movq	%rax, -64(%rbp)
	leaq	.LC12(%rip), %rax
	movq	%rax, -56(%rbp)
	leaq	.LC13(%rip), %rax
	movq	%rax, -48(%rbp)
	leaq	.LC14(%rip), %rax
	movq	%rax, -40(%rbp)
	leaq	.LC15(%rip), %rax
	movq	%rax, -32(%rbp)
	leaq	.LC16(%rip), %rax
	movq	%rax, -24(%rbp)
	leaq	.LC17(%rip), %rax
	movq	%rax, -16(%rbp)
	.loc 1 68 5
	leaq	64(%rbp), %rax
	leaq	.LC18(%rip), %rdx
	movq	%rax, %rcx
	call	formularioInit
	.loc 1 70 5
	leaq	64(%rbp), %rax
	movsd	.LC20(%rip), %xmm0
	movsd	%xmm0, 40(%rsp)
	pxor	%xmm0, %xmm0
	movsd	%xmm0, 32(%rsp)
	movl	$0, %r9d
	movl	$1, %r8d
	leaq	.LC19(%rip), %rdx
	movq	%rax, %rcx
	call	formularioAgregarCampoVA
	.loc 1 71 5
	leaq	64(%rbp), %rax
	leaq	-64(%rbp), %rdx
	movq	%rdx, 40(%rsp)
	movl	$6, 32(%rsp)
	movl	$2, %r9d
	movl	$1, %r8d
	leaq	.LC22(%rip), %rdx
	movq	%rax, %rcx
	call	formularioAgregarCampoVA
	.loc 1 72 5
	leaq	64(%rbp), %rax
	leaq	convertirFechaResAper(%rip), %rdx
	movq	%rdx, 48(%rsp)
	movq	.refptr.validarFechaForm(%rip), %rdx
	movq	%rdx, 40(%rsp)
	movl	$30, 32(%rsp)
	movl	$1, %r9d
	movl	$1, %r8d
	leaq	.LC23(%rip), %rdx
	movq	%rax, %rcx
	call	formularioAgregarCampoVA
	.loc 1 74 5
	leaq	64(%rbp), %rax
	movq	%rax, %rcx
	call	formularioPublicar
	.loc 1 76 28
	leaq	64(%rbp), %rax
	movl	$0, %edx
	movq	%rax, %rcx
	call	formularioRespuesta
	movq	%rax, %rdx
	.loc 1 76 5
	leaq	3600(%rbp), %rax
	addq	$30, %rax
	movl	$18, %r8d
	movq	%rax, %rcx
	call	stringNCopy
	.loc 1 77 29
	leaq	64(%rbp), %rax
	movl	$1, %edx
	movq	%rax, %rcx
	call	formularioRespuesta
	movq	%rax, %rdx
	.loc 1 77 5
	leaq	3600(%rbp), %rax
	addq	$48, %rax
	movl	$15, %r8d
	movq	%rax, %rcx
	call	stringNCopy
	.loc 1 78 30
	leaq	64(%rbp), %rax
	movl	$2, %edx
	movq	%rax, %rcx
	call	formularioRespuesta
	movq	%rax, %rdx
	.loc 1 78 5
	leaq	3600(%rbp), %rax
	movl	$30, %r8d
	movq	%rax, %rcx
	call	stringNCopy
	.loc 1 80 5
	leaq	64(%rbp), %rax
	movq	%rax, %rcx
	call	formularioDestruir
	.loc 1 82 12
	movq	3728(%rbp), %rax
	movq	3600(%rbp), %rdx
	movq	%rdx, (%rax)
	movq	3608(%rbp), %rdx
	movq	%rdx, 8(%rax)
	movq	3616(%rbp), %rdx
	movq	%rdx, 16(%rax)
	movq	3624(%rbp), %rdx
	movq	%rdx, 24(%rax)
	movq	3632(%rbp), %rdx
	movq	%rdx, 32(%rax)
	movq	3640(%rbp), %rdx
	movq	%rdx, 40(%rax)
	movq	3648(%rbp), %rdx
	movq	%rdx, 48(%rax)
	movq	3656(%rbp), %rdx
	movq	%rdx, 56(%rax)
	movq	3664(%rbp), %rdx
	movq	%rdx, 64(%rax)
	movq	3672(%rbp), %rdx
	movq	%rdx, 72(%rax)
	movzbl	3680(%rbp), %edx
	movb	%dl, 80(%rax)
	.loc 1 83 1
	movq	3728(%rbp), %rax
	addq	$3832, %rsp
	popq	%rdi
	.cfi_restore 5
	popq	%rbp
	.cfi_restore 6
	.cfi_def_cfa 7, -3816
	ret
	.cfi_endproc
.LFE18:
	.seh_endproc
	.section .rdata,"dr"
.LC24:
	.ascii "-01\0"
	.text
	.globl	convertirFechaResAper
	.def	convertirFechaResAper;	.scl	2;	.type	32;	.endef
	.seh_proc	convertirFechaResAper
convertirFechaResAper:
.LFB19:
	.loc 1 86 1
	.cfi_startproc
	pushq	%rbp
	.seh_pushreg	%rbp
	.cfi_def_cfa_offset 16
	.cfi_offset 6, -16
	movq	%rsp, %rbp
	.seh_setframe	%rbp, 0
	.cfi_def_cfa_register 6
	subq	$32, %rsp
	.seh_stackalloc	32
	.seh_endprologue
	movq	%rcx, 16(%rbp)
	.loc 1 87 5
	leaq	.LC24(%rip), %rdx
	movq	16(%rbp), %rcx
	call	stringCat
	.loc 1 88 12
	movq	16(%rbp), %rax
	.loc 1 89 1
	addq	$32, %rsp
	popq	%rbp
	.cfi_restore 6
	.cfi_def_cfa 7, 8
	ret
	.cfi_endproc
.LFE19:
	.seh_endproc
	.section .rdata,"dr"
.LC25:
	.ascii "04.1.1\0"
	.text
	.globl	filtrarAlquileres
	.def	filtrarAlquileres;	.scl	2;	.type	32;	.endef
	.seh_proc	filtrarAlquileres
filtrarAlquileres:
.LFB20:
	.loc 1 92 1
	.cfi_startproc
	pushq	%rbp
	.seh_pushreg	%rbp
	.cfi_def_cfa_offset 16
	.cfi_offset 6, -16
	movq	%rsp, %rbp
	.seh_setframe	%rbp, 0
	.cfi_def_cfa_register 6
	subq	$64, %rsp
	.seh_stackalloc	64
	.seh_endprologue
	movq	%rcx, 16(%rbp)
	movq	%rdx, 24(%rbp)
	.loc 1 93 19
	movq	16(%rbp), %rax
	movq	%rax, -8(%rbp)
	.loc 1 94 26
	movq	24(%rbp), %rax
	movq	%rax, -16(%rbp)
	.loc 1 99 17
	movl	fechaIni.4764(%rip), %eax
	.loc 1 99 7
	testl	%eax, %eax
	jne	.L8
	.loc 1 100 33
	movq	-16(%rbp), %rax
	movzbl	5(%rax), %eax
	movsbl	%al, %edx
	.loc 1 100 37
	movl	%edx, %eax
	sall	$2, %eax
	addl	%edx, %eax
	addl	%eax, %eax
	movl	%eax, %edx
	.loc 1 100 57
	movq	-16(%rbp), %rax
	movzbl	6(%rax), %eax
	movsbl	%al, %eax
	.loc 1 100 42
	addl	%edx, %eax
	.loc 1 100 61
	subl	$528, %eax
	.loc 1 100 18
	movl	%eax, fechaIni.4764(%rip)
	.loc 1 101 34
	movq	-16(%rbp), %rax
	movzbl	(%rax), %eax
	movsbl	%al, %eax
	.loc 1 101 38
	imull	$100000, %eax, %edx
	.loc 1 101 62
	movq	-16(%rbp), %rax
	movzbl	1(%rax), %eax
	movsbl	%al, %eax
	.loc 1 101 66
	imull	$10000, %eax, %eax
	.loc 1 101 47
	addl	%eax, %edx
	.loc 1 101 89
	movq	-16(%rbp), %rax
	movzbl	2(%rax), %eax
	movsbl	%al, %eax
	.loc 1 101 93
	imull	$1000, %eax, %eax
	.loc 1 101 74
	addl	%eax, %edx
	.loc 1 101 115
	movq	-16(%rbp), %rax
	movzbl	3(%rax), %eax
	movsbl	%al, %eax
	.loc 1 101 119
	imull	$100, %eax, %eax
	.loc 1 101 100
	addl	%edx, %eax
	.loc 1 101 125
	leal	-5332800(%rax), %edx
	.loc 1 101 18
	movl	fechaIni.4764(%rip), %eax
	addl	%edx, %eax
	movl	%eax, fechaIni.4764(%rip)
.L8:
	.loc 1 104 29
	movq	-8(%rbp), %rax
	movzbl	121(%rax), %eax
	movsbl	%al, %edx
	.loc 1 104 33
	movl	%edx, %eax
	sall	$2, %eax
	addl	%edx, %eax
	addl	%eax, %eax
	movl	%eax, %edx
	.loc 1 104 53
	movq	-8(%rbp), %rax
	movzbl	122(%rax), %eax
	movsbl	%al, %eax
	.loc 1 104 38
	addl	%edx, %eax
	.loc 1 104 14
	subl	$528, %eax
	movl	%eax, -20(%rbp)
	.loc 1 105 30
	movq	-8(%rbp), %rax
	movzbl	116(%rax), %eax
	movsbl	%al, %eax
	.loc 1 105 34
	imull	$100000, %eax, %edx
	.loc 1 105 58
	movq	-8(%rbp), %rax
	movzbl	117(%rax), %eax
	movsbl	%al, %eax
	.loc 1 105 62
	imull	$10000, %eax, %eax
	.loc 1 105 43
	addl	%eax, %edx
	.loc 1 105 85
	movq	-8(%rbp), %rax
	movzbl	118(%rax), %eax
	movsbl	%al, %eax
	.loc 1 105 89
	imull	$1000, %eax, %eax
	.loc 1 105 70
	addl	%eax, %edx
	.loc 1 105 111
	movq	-8(%rbp), %rax
	movzbl	119(%rax), %eax
	movsbl	%al, %eax
	.loc 1 105 115
	imull	$100, %eax, %eax
	.loc 1 105 96
	addl	%edx, %eax
	.loc 1 105 121
	subl	$5332800, %eax
	.loc 1 105 14
	addl	%eax, -20(%rbp)
	.loc 1 107 23
	movq	-8(%rbp), %rax
	.loc 1 107 9
	leaq	.LC25(%rip), %rdx
	movq	%rax, %rcx
	call	stringCmp
	.loc 1 107 7
	testl	%eax, %eax
	jne	.L9
	.loc 1 107 72 discriminator 1
	movq	-8(%rbp), %rax
	leaq	200(%rax), %rdx
	.loc 1 107 58 discriminator 1
	movq	-16(%rbp), %rax
	addq	$48, %rax
	.loc 1 107 44 discriminator 1
	movq	%rax, %rcx
	call	stringCmp
	.loc 1 107 40 discriminator 1
	testl	%eax, %eax
	jne	.L9
	.loc 1 107 95 discriminator 2
	movl	fechaIni.4764(%rip), %eax
	.loc 1 107 82 discriminator 2
	cmpl	%eax, -20(%rbp)
	jl	.L9
	.loc 1 108 16
	movl	$1, %eax
	jmp	.L10
.L9:
	.loc 1 111 12
	movl	$0, %eax
.L10:
	.loc 1 112 1
	addq	$64, %rsp
	popq	%rbp
	.cfi_restore 6
	.cfi_def_cfa 7, 8
	ret
	.cfi_endproc
.LFE20:
	.seh_endproc
	.section .rdata,"dr"
.LC28:
	.ascii "%0.2lf\0"
	.text
	.globl	mapearAlquileres
	.def	mapearAlquileres;	.scl	2;	.type	32;	.endef
	.seh_proc	mapearAlquileres
mapearAlquileres:
.LFB21:
	.loc 1 115 1
	.cfi_startproc
	pushq	%rbp
	.seh_pushreg	%rbp
	.cfi_def_cfa_offset 16
	.cfi_offset 6, -16
	movq	%rsp, %rbp
	.seh_setframe	%rbp, 0
	.cfi_def_cfa_register 6
	subq	$96, %rsp
	.seh_stackalloc	96
	movaps	%xmm6, -32(%rbp)
	.seh_savexmm	%xmm6, 64
	movaps	%xmm7, -16(%rbp)
	.seh_savexmm	%xmm7, 80
	.cfi_offset 23, -48
	.cfi_offset 24, -32
	.seh_endprologue
	movq	%rcx, 16(%rbp)
	movq	%rdx, 24(%rbp)
	movq	%r8, 32(%rbp)
	.loc 1 116 19
	movq	16(%rbp), %rax
	movq	%rax, -40(%rbp)
	.loc 1 117 20
	movq	24(%rbp), %rax
	movq	%rax, -48(%rbp)
	.loc 1 118 26
	movq	32(%rbp), %rax
	movq	%rax, -56(%rbp)
	.loc 1 120 36
	movq	-40(%rbp), %rax
	leaq	116(%rax), %rdx
	.loc 1 120 21
	movq	-48(%rbp), %rax
	.loc 1 120 5
	movl	$30, %r8d
	movq	%rax, %rcx
	call	stringNCopy
	.loc 1 121 38
	movq	-40(%rbp), %rax
	leaq	146(%rax), %rdx
	.loc 1 121 21
	movq	-48(%rbp), %rax
	addq	$30, %rax
	.loc 1 121 5
	movl	$18, %r8d
	movq	%rax, %rcx
	call	stringNCopy
	.loc 1 123 53
	movq	-40(%rbp), %rax
	addq	$146, %rax
	.loc 1 123 44
	movq	%rax, %rcx
	call	atof
	movapd	%xmm0, %xmm6
	.loc 1 123 77
	movq	-56(%rbp), %rax
	addq	$63, %rax
	.loc 1 123 68
	movq	%rax, %rcx
	call	atof
	.loc 1 123 66
	divsd	%xmm0, %xmm6
	movapd	%xmm6, %xmm0
	.loc 1 123 90
	movsd	.LC26(%rip), %xmm1
	subsd	%xmm1, %xmm0
	movapd	%xmm0, %xmm1
	.loc 1 123 5
	movsd	.LC27(%rip), %xmm0
	mulsd	%xmm1, %xmm0
	.loc 1 123 17
	movq	-48(%rbp), %rax
	addq	$48, %rax
	.loc 1 123 5
	movq	%xmm0, %rdx
	movq	%rdx, %r8
	movq	%rdx, %rcx
	movq	%r8, %rdx
	movq	%rcx, %xmm0
	movq	%rdx, %xmm2
	movq	%xmm0, %r8
	leaq	.LC28(%rip), %rdx
	movq	%rax, %rcx
	call	sprintf
	.loc 1 124 53
	movq	-56(%rbp), %rax
	addq	$30, %rax
	.loc 1 124 44
	movq	%rax, %rcx
	call	atof
	movapd	%xmm0, %xmm7
	.loc 1 124 74
	movq	-40(%rbp), %rax
	addq	$146, %rax
	.loc 1 124 65
	movq	%rax, %rcx
	call	atof
	movapd	%xmm0, %xmm6
	.loc 1 124 98
	movq	-56(%rbp), %rax
	addq	$63, %rax
	.loc 1 124 89
	movq	%rax, %rcx
	call	atof
	.loc 1 124 87
	divsd	%xmm0, %xmm6
	movapd	%xmm6, %xmm0
	.loc 1 124 5
	mulsd	%xmm7, %xmm0
	.loc 1 124 17
	movq	-48(%rbp), %rax
	addq	$66, %rax
	.loc 1 124 5
	movq	%xmm0, %rdx
	movq	%rdx, %r8
	movq	%rdx, %rcx
	movq	%r8, %rdx
	movq	%rcx, %xmm0
	movq	%rdx, %xmm2
	movq	%xmm0, %r8
	leaq	.LC28(%rip), %rdx
	movq	%rax, %rcx
	call	sprintf
	.loc 1 126 12
	movq	-48(%rbp), %rax
	.loc 1 127 1
	movaps	-32(%rbp), %xmm6
	movaps	-16(%rbp), %xmm7
	addq	$96, %rsp
	.cfi_restore 24
	.cfi_restore 23
	popq	%rbp
	.cfi_restore 6
	.cfi_def_cfa 7, 8
	ret
	.cfi_endproc
.LFE21:
	.seh_endproc
	.section .rdata,"dr"
	.align 8
.LC29:
	.ascii "\33[1m\33[1;36m%-*s\11\33[0;37m | \33[1;36m%-*s\11\33[0;37m | \33[1;36m%-*s\11\33[0;37m | \33[1;36m%-*s\12\33[0m\0"
	.text
	.globl	mostrarAlquileres
	.def	mostrarAlquileres;	.scl	2;	.type	32;	.endef
	.seh_proc	mostrarAlquileres
mostrarAlquileres:
.LFB22:
	.loc 1 130 1
	.cfi_startproc
	pushq	%rbp
	.seh_pushreg	%rbp
	.cfi_def_cfa_offset 16
	.cfi_offset 6, -16
	movq	%rsp, %rbp
	.seh_setframe	%rbp, 0
	.cfi_def_cfa_register 6
	subq	$96, %rsp
	.seh_stackalloc	96
	.seh_endprologue
	movq	%rcx, 16(%rbp)
	.loc 1 131 20
	movq	16(%rbp), %rax
	movq	%rax, -8(%rbp)
	.loc 1 133 246
	movq	-8(%rbp), %rax
	leaq	66(%rax), %rcx
	.loc 1 133 223
	movq	-8(%rbp), %rax
	leaq	48(%rax), %rdx
	.loc 1 133 203
	movq	-8(%rbp), %rax
	addq	$30, %rax
	.loc 1 133 185
	movq	-8(%rbp), %r8
	.loc 1 133 5
	movq	%rcx, 64(%rsp)
	movl	$18, 56(%rsp)
	movq	%rdx, 48(%rsp)
	movl	$18, 40(%rsp)
	movq	%rax, 32(%rsp)
	movl	$18, %r9d
	movl	$30, %edx
	leaq	.LC29(%rip), %rcx
	call	printf
	.loc 1 134 1
	nop
	addq	$96, %rsp
	popq	%rbp
	.cfi_restore 6
	.cfi_def_cfa 7, 8
	ret
	.cfi_endproc
.LFE22:
	.seh_endproc
.lcomm fechaIni.4764,4,4
	.section .rdata,"dr"
	.align 8
.LC20:
	.long	0
	.long	1097011920
	.align 8
.LC26:
	.long	0
	.long	1072693248
	.align 8
.LC27:
	.long	0
	.long	1079574528
	.text
.Letext0:
	.file 2 "C:/Program Files/CodeBlocks/MinGW/x86_64-w64-mingw32/include/crtdefs.h"
	.file 3 "C:/Program Files/CodeBlocks/MinGW/x86_64-w64-mingw32/include/stdlib.h"
	.file 4 "C:/Program Files/CodeBlocks/MinGW/x86_64-w64-mingw32/include/malloc.h"
	.file 5 "C:/Program Files/CodeBlocks/MinGW/x86_64-w64-mingw32/include/ctype.h"
	.file 6 "C:/Users/LENOVO/OneDrive/Escritorio/TP_T\363picos_2025_2c_jueves_LOS_FUNDAMENTALISTAS_DE_LINUX/vector.h"
	.file 7 "C:/Users/LENOVO/OneDrive/Escritorio/TP_T\363picos_2025_2c_jueves_LOS_FUNDAMENTALISTAS_DE_LINUX/comunes.h"
	.file 8 "C:/Users/LENOVO/OneDrive/Escritorio/TP_T\363picos_2025_2c_jueves_LOS_FUNDAMENTALISTAS_DE_LINUX/formulario.h"
	.section	.rdata$.refptr.validarFechaForm, "dr"
	.globl	.refptr.validarFechaForm
	.linkonce	discard
.refptr.validarFechaForm:
	.quad	validarFechaForm
