	.file	"parseoDivisiones.c"
	.text
.Ltext0:
	.cfi_sections	.debug_frame
	.globl	parsearYCorregirIPCDivisiones
	.def	parsearYCorregirIPCDivisiones;	.scl	2;	.type	32;	.endef
	.seh_proc	parsearYCorregirIPCDivisiones
parsearYCorregirIPCDivisiones:
.LFB17:
	.file 1 "C:/Users/LENOVO/OneDrive/Escritorio/TP_T\363picos_2025_2c_jueves_LOS_FUNDAMENTALISTAS_DE_LINUX/parseoDivisiones.c"
	.loc 1 10 1
	.cfi_startproc
	pushq	%rbp
	.seh_pushreg	%rbp
	.cfi_def_cfa_offset 16
	.cfi_offset 6, -16
	movq	%rsp, %rbp
	.seh_setframe	%rbp, 0
	.cfi_def_cfa_register 6
	subq	$48, %rsp
	.seh_stackalloc	48
	.seh_endprologue
	movq	%rcx, 16(%rbp)
	movq	%rdx, 24(%rbp)
	.loc 1 11 20
	movq	24(%rbp), %rax
	movq	%rax, -16(%rbp)
	.loc 1 13 11
	movq	$0, -8(%rbp)
	.loc 1 16 9
	movq	16(%rbp), %r8
	movl	$500, %edx
	leaq	buffer.5174(%rip), %rcx
	call	fgets
	.loc 1 16 7
	testq	%rax, %rax
	jne	.L2
	.loc 1 17 16
	movl	$0, %eax
	jmp	.L3
.L2:
	.loc 1 20 5
	movl	$34, %edx
	leaq	buffer.5174(%rip), %rcx
	call	stringRemove
	.loc 1 21 5
	movl	$46, %r8d
	movl	$44, %edx
	leaq	buffer.5174(%rip), %rcx
	call	stringReplace
	.loc 1 23 14
	movl	$10, %edx
	leaq	buffer.5174(%rip), %rcx
	call	stringRChar
	movq	%rax, -8(%rbp)
	.loc 1 23 7
	cmpq	$0, -8(%rbp)
	jne	.L4
	.loc 1 24 18
	movl	$-1, %edx
	leaq	buffer.5174(%rip), %rcx
	call	stringRChar
	movq	%rax, -8(%rbp)
	.loc 1 24 11
	cmpq	$0, -8(%rbp)
	jne	.L4
	.loc 1 25 20
	movl	$4, %eax
	jmp	.L3
.L4:
	.loc 1 29 8
	movq	-8(%rbp), %rax
	movb	$0, (%rax)
	.loc 1 31 14
	movl	$59, %edx
	leaq	buffer.5174(%rip), %rcx
	call	stringRChar
	movq	%rax, -8(%rbp)
	.loc 1 31 7
	cmpq	$0, -8(%rbp)
	jne	.L5
	.loc 1 32 16
	movl	$5, %eax
	jmp	.L3
.L5:
	.loc 1 35 5
	addq	$1, -8(%rbp)
	.loc 1 36 20
	movq	-16(%rbp), %rax
	addq	$185, %rax
	.loc 1 36 5
	movq	-8(%rbp), %rdx
	movl	$30, %r8d
	movq	%rax, %rcx
	call	stringNCopy
	.loc 1 37 12
	subq	$1, -8(%rbp)
	movq	-8(%rbp), %rax
	movb	$0, (%rax)
	.loc 1 39 14
	movl	$59, %edx
	leaq	buffer.5174(%rip), %rcx
	call	stringRChar
	movq	%rax, -8(%rbp)
	.loc 1 39 7
	cmpq	$0, -8(%rbp)
	jne	.L6
	.loc 1 40 16
	movl	$5, %eax
	jmp	.L3
.L6:
	.loc 1 43 5
	addq	$1, -8(%rbp)
	.loc 1 44 20
	movq	-16(%rbp), %rax
	addq	$170, %rax
	.loc 1 44 5
	movq	-8(%rbp), %rdx
	movl	$15, %r8d
	movq	%rax, %rcx
	call	stringNCopy
	.loc 1 45 12
	subq	$1, -8(%rbp)
	movq	-8(%rbp), %rax
	movb	$0, (%rax)
	.loc 1 47 14
	movl	$59, %edx
	leaq	buffer.5174(%rip), %rcx
	call	stringRChar
	movq	%rax, -8(%rbp)
	.loc 1 47 7
	cmpq	$0, -8(%rbp)
	jne	.L7
	.loc 1 48 16
	movl	$5, %eax
	jmp	.L3
.L7:
	.loc 1 51 5
	addq	$1, -8(%rbp)
	.loc 1 52 20
	movq	-16(%rbp), %rax
	addq	$152, %rax
	.loc 1 52 5
	movq	-8(%rbp), %rdx
	movl	$18, %r8d
	movq	%rax, %rcx
	call	stringNCopy
	.loc 1 53 12
	subq	$1, -8(%rbp)
	movq	-8(%rbp), %rax
	movb	$0, (%rax)
	.loc 1 55 14
	movl	$59, %edx
	leaq	buffer.5174(%rip), %rcx
	call	stringRChar
	movq	%rax, -8(%rbp)
	.loc 1 55 7
	cmpq	$0, -8(%rbp)
	jne	.L8
	.loc 1 56 16
	movl	$5, %eax
	jmp	.L3
.L8:
	.loc 1 59 5
	addq	$1, -8(%rbp)
	.loc 1 60 20
	movq	-16(%rbp), %rax
	addq	$134, %rax
	.loc 1 60 5
	movq	-8(%rbp), %rdx
	movl	$18, %r8d
	movq	%rax, %rcx
	call	stringNCopy
	.loc 1 61 12
	subq	$1, -8(%rbp)
	movq	-8(%rbp), %rax
	movb	$0, (%rax)
	.loc 1 63 14
	movl	$59, %edx
	leaq	buffer.5174(%rip), %rcx
	call	stringRChar
	movq	%rax, -8(%rbp)
	.loc 1 63 7
	cmpq	$0, -8(%rbp)
	jne	.L9
	.loc 1 64 16
	movl	$5, %eax
	jmp	.L3
.L9:
	.loc 1 67 5
	addq	$1, -8(%rbp)
	.loc 1 68 20
	movq	-16(%rbp), %rax
	addq	$116, %rax
	.loc 1 68 5
	movq	-8(%rbp), %rdx
	movl	$18, %r8d
	movq	%rax, %rcx
	call	stringNCopy
	.loc 1 69 12
	subq	$1, -8(%rbp)
	movq	-8(%rbp), %rax
	movb	$0, (%rax)
	.loc 1 71 14
	movl	$59, %edx
	leaq	buffer.5174(%rip), %rcx
	call	stringRChar
	movq	%rax, -8(%rbp)
	.loc 1 71 7
	cmpq	$0, -8(%rbp)
	jne	.L10
	.loc 1 72 16
	movl	$5, %eax
	jmp	.L3
.L10:
	.loc 1 75 5
	addq	$1, -8(%rbp)
	.loc 1 76 20
	movq	-16(%rbp), %rax
	addq	$76, %rax
	.loc 1 76 5
	movq	-8(%rbp), %rdx
	movl	$40, %r8d
	movq	%rax, %rcx
	call	stringNCopy
	.loc 1 77 12
	subq	$1, -8(%rbp)
	movq	-8(%rbp), %rax
	movb	$0, (%rax)
	.loc 1 79 14
	movl	$59, %edx
	leaq	buffer.5174(%rip), %rcx
	call	stringRChar
	movq	%rax, -8(%rbp)
	.loc 1 79 7
	cmpq	$0, -8(%rbp)
	jne	.L11
	.loc 1 80 16
	movl	$5, %eax
	jmp	.L3
.L11:
	.loc 1 83 5
	addq	$1, -8(%rbp)
	.loc 1 84 20
	movq	-16(%rbp), %rax
	addq	$15, %rax
	.loc 1 84 5
	movq	-8(%rbp), %rdx
	movl	$61, %r8d
	movq	%rax, %rcx
	call	stringNCopy
	.loc 1 85 12
	subq	$1, -8(%rbp)
	movq	-8(%rbp), %rax
	movb	$0, (%rax)
	.loc 1 87 20
	movq	-16(%rbp), %rax
	.loc 1 87 5
	movl	$15, %r8d
	leaq	buffer.5174(%rip), %rdx
	movq	%rax, %rcx
	call	stringNCopy
	.loc 1 89 5
	movq	-16(%rbp), %rax
	leaq	decodificador.5176(%rip), %rdx
	movq	%rax, %rcx
	call	decodificarFechaDivisiones
	.loc 1 90 5
	movq	-16(%rbp), %rax
	movq	%rax, %rcx
	call	convertirFechaDivisiones
	.loc 1 91 5
	movq	-16(%rbp), %rax
	movq	%rax, %rcx
	call	normalizarDescripcionDivisiones
	.loc 1 92 22
	movq	-16(%rbp), %rax
	addq	$15, %rax
	.loc 1 92 5
	movl	$44, %r8d
	movl	$46, %edx
	movq	%rax, %rcx
	call	stringReplace
	.loc 1 94 12
	movl	$0, %eax
.L3:
	.loc 1 95 1
	addq	$48, %rsp
	popq	%rbp
	.cfi_restore 6
	.cfi_def_cfa 7, 8
	ret
	.cfi_endproc
.LFE17:
	.seh_endproc
	.globl	decodificarFechaDivisiones
	.def	decodificarFechaDivisiones;	.scl	2;	.type	32;	.endef
	.seh_proc	decodificarFechaDivisiones
decodificarFechaDivisiones:
.LFB18:
	.loc 1 98 1
	.cfi_startproc
	pushq	%rbp
	.seh_pushreg	%rbp
	.cfi_def_cfa_offset 16
	.cfi_offset 6, -16
	movq	%rsp, %rbp
	.seh_setframe	%rbp, 0
	.cfi_def_cfa_register 6
	subq	$16, %rsp
	.seh_stackalloc	16
	.seh_endprologue
	movq	%rcx, 16(%rbp)
	movq	%rdx, 24(%rbp)
	.loc 1 99 11
	movq	16(%rbp), %rax
	addq	$185, %rax
	movq	%rax, -8(%rbp)
	.loc 1 101 10
	jmp	.L13
.L16:
	.loc 1 102 12
	movq	-8(%rbp), %rax
	movzbl	(%rax), %eax
	.loc 1 102 11
	cmpb	$47, %al
	jle	.L14
	.loc 1 102 25 discriminator 1
	movq	-8(%rbp), %rax
	movzbl	(%rax), %eax
	.loc 1 102 22 discriminator 1
	cmpb	$57, %al
	jg	.L14
	.loc 1 103 24
	movq	-8(%rbp), %rax
	movzbl	(%rax), %eax
	movsbq	%al, %rax
	.loc 1 103 23
	salq	$2, %rax
	leaq	-192(%rax), %rdx
	movq	24(%rbp), %rax
	addq	%rdx, %rax
	movl	(%rax), %eax
	.loc 1 103 16
	movl	%eax, %edx
	movq	-8(%rbp), %rax
	movb	%dl, (%rax)
	.loc 1 107 9
	addq	$1, -8(%rbp)
	jmp	.L13
.L14:
	.loc 1 105 20
	movl	$5, %eax
	jmp	.L15
.L13:
	.loc 1 101 11
	movq	-8(%rbp), %rax
	movzbl	(%rax), %eax
	.loc 1 101 10
	testb	%al, %al
	jne	.L16
	.loc 1 110 12
	movl	$0, %eax
.L15:
	.loc 1 111 1
	addq	$16, %rsp
	popq	%rbp
	.cfi_restore 6
	.cfi_def_cfa 7, 8
	ret
	.cfi_endproc
.LFE18:
	.seh_endproc
	.section .rdata,"dr"
.LC0:
	.ascii "%s - %s\0"
	.text
	.globl	convertirFechaDivisiones
	.def	convertirFechaDivisiones;	.scl	2;	.type	32;	.endef
	.seh_proc	convertirFechaDivisiones
convertirFechaDivisiones:
.LFB19:
	.loc 1 114 1
	.cfi_startproc
	pushq	%rbp
	.seh_pushreg	%rbp
	.cfi_def_cfa_offset 16
	.cfi_offset 6, -16
	movq	%rsp, %rbp
	.seh_setframe	%rbp, 0
	.cfi_def_cfa_register 6
	subq	$64, %rsp
	.seh_stackalloc	64
	.seh_endprologue
	movq	%rcx, 16(%rbp)
	.loc 1 115 11
	movq	16(%rbp), %rax
	addq	$185, %rax
	movq	%rax, -8(%rbp)
	.loc 1 127 5
	movq	-8(%rbp), %rdx
	leaq	-17(%rbp), %rax
	movl	$4, %r8d
	movq	%rax, %rcx
	call	stringNCopy
	.loc 1 129 22
	movq	-8(%rbp), %rax
	leaq	4(%rax), %rdx
	.loc 1 129 5
	leaq	-20(%rbp), %rax
	movl	$2, %r8d
	movq	%rax, %rcx
	call	stringNCopy
	.loc 1 130 11
	leaq	-20(%rbp), %rax
	movq	%rax, %rcx
	call	atoi
	movl	%eax, -12(%rbp)
	.loc 1 132 7
	cmpl	$0, -12(%rbp)
	jle	.L18
	.loc 1 132 16 discriminator 1
	cmpl	$12, -12(%rbp)
	jle	.L19
.L18:
	.loc 1 133 16
	movl	$5, %eax
	jmp	.L21
.L19:
	.loc 1 136 48
	movl	-12(%rbp), %eax
	subl	$1, %eax
	.loc 1 136 5
	cltq
	leaq	0(,%rax,8), %rdx
	leaq	meses.5189(%rip), %rax
	movq	(%rdx,%rax), %rcx
	.loc 1 136 16
	movq	16(%rbp), %rax
	addq	$185, %rax
	.loc 1 136 5
	leaq	-17(%rbp), %rdx
	movq	%rdx, %r9
	movq	%rcx, %r8
	leaq	.LC0(%rip), %rdx
	movq	%rax, %rcx
	call	sprintf
	.loc 1 138 12
	movl	$0, %eax
.L21:
	.loc 1 139 1 discriminator 1
	addq	$64, %rsp
	popq	%rbp
	.cfi_restore 6
	.cfi_def_cfa 7, 8
	ret
	.cfi_endproc
.LFE19:
	.seh_endproc
	.globl	normalizarDescripcionDivisiones
	.def	normalizarDescripcionDivisiones;	.scl	2;	.type	32;	.endef
	.seh_proc	normalizarDescripcionDivisiones
normalizarDescripcionDivisiones:
.LFB20:
	.loc 1 142 1
	.cfi_startproc
	pushq	%rbp
	.seh_pushreg	%rbp
	.cfi_def_cfa_offset 16
	.cfi_offset 6, -16
	movq	%rsp, %rbp
	.seh_setframe	%rbp, 0
	.cfi_def_cfa_register 6
	subq	$48, %rsp
	.seh_stackalloc	48
	.seh_endprologue
	movq	%rcx, 16(%rbp)
	.loc 1 143 11
	movq	16(%rbp), %rax
	addq	$15, %rax
	movq	%rax, -8(%rbp)
	.loc 1 145 15
	movq	-8(%rbp), %rax
	movzbl	(%rax), %eax
	.loc 1 145 7
	movsbl	%al, %eax
	movl	%eax, %ecx
	call	toUpper
	.loc 1 145 5
	movl	%eax, %edx
	movq	-8(%rbp), %rax
	movb	%dl, (%rax)
	.loc 1 147 3
	addq	$1, -8(%rbp)
	.loc 1 148 8
	jmp	.L23
.L25:
	.loc 1 149 15
	movq	-8(%rbp), %rax
	movzbl	(%rax), %eax
	.loc 1 149 7
	movsbl	%al, %eax
	movl	%eax, %ecx
	call	isAlpha
	.loc 1 149 6
	testl	%eax, %eax
	je	.L24
	.loc 1 150 17
	movq	-8(%rbp), %rax
	movzbl	(%rax), %eax
	.loc 1 150 9
	movsbl	%al, %eax
	movl	%eax, %ecx
	call	toLower
	.loc 1 150 7
	movl	%eax, %edx
	movq	-8(%rbp), %rax
	movb	%dl, (%rax)
.L24:
	.loc 1 152 3
	addq	$1, -8(%rbp)
.L23:
	.loc 1 148 9
	movq	-8(%rbp), %rax
	movzbl	(%rax), %eax
	.loc 1 148 8
	testb	%al, %al
	jne	.L25
	.loc 1 154 9
	movl	$0, %eax
	.loc 1 156 1
	addq	$48, %rsp
	popq	%rbp
	.cfi_restore 6
	.cfi_def_cfa 7, 8
	ret
	.cfi_endproc
.LFE20:
	.seh_endproc
.lcomm buffer.5174,500,32
	.data
	.align 32
decodificador.5176:
	.long	52
	.long	54
	.long	56
	.long	55
	.long	49
	.long	57
	.long	53
	.long	48
	.long	51
	.long	50
	.section .rdata,"dr"
.LC1:
	.ascii "Enero\0"
.LC2:
	.ascii "Febrero\0"
.LC3:
	.ascii "Marzo\0"
.LC4:
	.ascii "Abril\0"
.LC5:
	.ascii "Mayo\0"
.LC6:
	.ascii "Junio\0"
.LC7:
	.ascii "Julio\0"
.LC8:
	.ascii "Agosto\0"
.LC9:
	.ascii "Septiembre\0"
.LC10:
	.ascii "Octubre\0"
.LC11:
	.ascii "Noviembre\0"
.LC12:
	.ascii "Diciembre\0"
	.data
	.align 32
meses.5189:
	.quad	.LC1
	.quad	.LC2
	.quad	.LC3
	.quad	.LC4
	.quad	.LC5
	.quad	.LC6
	.quad	.LC7
	.quad	.LC8
	.quad	.LC9
	.quad	.LC10
	.quad	.LC11
	.quad	.LC12
	.text
.Letext0:
	.file 2 "C:/Program Files/CodeBlocks/MinGW/x86_64-w64-mingw32/include/crtdefs.h"
	.file 3 "C:/Program Files/CodeBlocks/MinGW/x86_64-w64-mingw32/include/stdlib.h"
	.file 4 "C:/Program Files/CodeBlocks/MinGW/x86_64-w64-mingw32/include/malloc.h"
	.file 5 "C:/Program Files/CodeBlocks/MinGW/x86_64-w64-mingw32/include/stdio.h"
	.file 6 "C:/Program Files/CodeBlocks/MinGW/x86_64-w64-mingw32/include/ctype.h"
	.file 7 "C:/Users/LENOVO/OneDrive/Escritorio/TP_T\363picos_2025_2c_jueves_LOS_FUNDAMENTALISTAS_DE_LINUX/comunes.h"